---
triple:          'arm64-apple-darwin'
binary-path:     '/Users/sunaykishorbhoyar/LP2/Assignment 4/output/jobScheduling'
relocations:
  - { offsetInCU: 0x465C, offset: 0x465C, size: 0x8, addend: 0x0, symName: __ZNSt3__111__sift_downB8ue170006INS_17_ClassicAlgPolicyERPFb3jobS2_EPS2_EEvT1_OT0_NS_15iterator_traitsIS7_E15difference_typeES7_, symObjAddr: 0xE54, symBinAddr: 0x100003860, symSize: 0x3B4 }
  - { offsetInCU: 0x4710, offset: 0x4710, size: 0x8, addend: 0x0, symName: __ZNSt3__117__floyd_sift_downB8ue170006INS_17_ClassicAlgPolicyERPFb3jobS2_EPS2_EET1_S7_OT0_NS_15iterator_traitsIS7_E15difference_typeE, symObjAddr: 0x1470, symBinAddr: 0x100003E7C, symSize: 0x19C }
  - { offsetInCU: 0x47A9, offset: 0x47A9, size: 0x8, addend: 0x0, symName: __ZNSt3__111__introsortINS_17_ClassicAlgPolicyERPFb3jobS2_EPS2_Lb0EEEvT1_S7_T0_NS_15iterator_traitsIS7_E15difference_typeEb, symObjAddr: 0x1950, symBinAddr: 0x10000435C, symSize: 0x5CC }
  - { offsetInCU: 0x48DC, offset: 0x48DC, size: 0x8, addend: 0x0, symName: __ZNSt3__126__insertion_sort_unguardedB8ue170006INS_17_ClassicAlgPolicyERPFb3jobS2_EPS2_EEvT1_S7_T0_, symObjAddr: 0x225C, symBinAddr: 0x100004C68, symSize: 0x210 }
  - { offsetInCU: 0x49D2, offset: 0x49D2, size: 0x8, addend: 0x0, symName: __ZNSt3__131__partition_with_equals_on_leftB8ue170006INS_17_ClassicAlgPolicyEP3jobRPFbS2_S2_EEET0_S7_S7_T1_, symObjAddr: 0x2860, symBinAddr: 0x10000526C, symSize: 0x444 }
  - { offsetInCU: 0x4A93, offset: 0x4A93, size: 0x8, addend: 0x0, symName: __ZNSt3__118__bitset_partitionB8ue170006INS_17_ClassicAlgPolicyEP3jobRPFbS2_S2_EEENS_4pairIT0_bEES8_S8_T1_, symObjAddr: 0x2CA4, symBinAddr: 0x1000056B0, symSize: 0x4CC }
  - { offsetInCU: 0x4B94, offset: 0x4B94, size: 0x8, addend: 0x0, symName: __ZNSt3__124__swap_bitmap_pos_withinB8ue170006INS_17_ClassicAlgPolicyEP3jobEEvRT0_S5_RyS6_, symObjAddr: 0x4584, symBinAddr: 0x100006F90, symSize: 0x1E8 }
  - { offsetInCU: 0x4C61, offset: 0x4C61, size: 0x8, addend: 0x0, symName: __ZNSt3__132__partition_with_equals_on_rightB8ue170006INS_17_ClassicAlgPolicyEP3jobRPFbS2_S2_EEENS_4pairIT0_bEES8_S8_T1_, symObjAddr: 0x3170, symBinAddr: 0x100005B7C, symSize: 0x410 }
  - { offsetInCU: 0x4D32, offset: 0x4D32, size: 0x8, addend: 0x0, symName: __ZNSt3__127__insertion_sort_incompleteB8ue170006INS_17_ClassicAlgPolicyERPFb3jobS2_EPS2_EEbT1_S7_T0_, symObjAddr: 0x3580, symBinAddr: 0x100005F8C, symSize: 0x458 }
  - { offsetInCU: 0x60CD, offset: 0x60CD, size: 0x8, addend: 0x0, symName: __ZNSt3__113__fill_n_trueB8ue170006INS_6vectorIbNS_9allocatorIbEEEEEEvNS_14__bit_iteratorIT_Lb0EXLi0EEEENS6_9size_typeE, symObjAddr: 0x58B0, symBinAddr: 0x1000082BC, symSize: 0x160 }
  - { offsetInCU: 0x6192, offset: 0x6192, size: 0x8, addend: 0x0, symName: __ZNSt3__114__fill_n_falseB8ue170006INS_6vectorIbNS_9allocatorIbEEEEEEvNS_14__bit_iteratorIT_Lb0EXLi0EEEENS6_9size_typeE, symObjAddr: 0x5A44, symBinAddr: 0x100008450, symSize: 0x15C }
  - { offsetInCU: 0x646A, offset: 0x646A, size: 0x8, addend: 0x0, symName: __ZNSt3__124__put_character_sequenceB8ue170006IcNS_11char_traitsIcEEEERNS_13basic_ostreamIT_T0_EES7_PKS4_m, symObjAddr: 0x76F0, symBinAddr: 0x10000A0FC, symSize: 0x1F4 }
  - { offsetInCU: 0x83D6, offset: 0x83D6, size: 0x8, addend: 0x0, symName: __ZNSt3__14sortB8ue170006INS_11__wrap_iterIP3jobEEPFbS2_S2_EEEvT_S7_T0_, symObjAddr: 0x360, symBinAddr: 0x100002D6C, symSize: 0x48 }
  - { offsetInCU: 0x8430, offset: 0x8430, size: 0x8, addend: 0x0, symName: __ZNSt3__13minB8ue170006IiEERKT_S3_S3_, symObjAddr: 0x498, symBinAddr: 0x100002EA4, symSize: 0x2C }
  - { offsetInCU: 0x8473, offset: 0x8473, size: 0x8, addend: 0x0, symName: __ZNSt3__1lsB8ue170006INS_11char_traitsIcEEEERNS_13basic_ostreamIcT_EES6_PKc, symObjAddr: 0x630, symBinAddr: 0x10000303C, symSize: 0x48 }
  - { offsetInCU: 0x84B9, offset: 0x84B9, size: 0x8, addend: 0x0, symName: __ZNSt3__1lsB8ue170006INS_11char_traitsIcEEEERNS_13basic_ostreamIcT_EES6_c, symObjAddr: 0x678, symBinAddr: 0x100003084, symSize: 0x34 }
  - { offsetInCU: 0x84FF, offset: 0x84FF, size: 0x8, addend: 0x0, symName: __ZNSt3__111__sort_implB8ue170006INS_17_ClassicAlgPolicyENS_11__wrap_iterIP3jobEEPFbS3_S3_EEEvT0_S8_RT1_, symObjAddr: 0x930, symBinAddr: 0x10000333C, symSize: 0x108 }
  - { offsetInCU: 0x8562, offset: 0x8562, size: 0x8, addend: 0x0, symName: __ZNSt3__123__debug_randomize_rangeB8ue170006INS_17_ClassicAlgPolicyENS_11__wrap_iterIP3jobEES5_EEvT0_T1_, symObjAddr: 0xA38, symBinAddr: 0x100003444, symSize: 0x14 }
  - { offsetInCU: 0x85B3, offset: 0x85B3, size: 0x8, addend: 0x0, symName: __ZNSt3__130__libcpp_is_constant_evaluatedB8ue170006Ev, symObjAddr: 0xA4C, symBinAddr: 0x100003458, symSize: 0xC }
  - { offsetInCU: 0x85D0, offset: 0x85D0, size: 0x8, addend: 0x0, symName: __ZNSt3__114__partial_sortB8ue170006INS_17_ClassicAlgPolicyEPFb3jobS2_EPS2_S5_EET1_S6_S6_T2_RT0_, symObjAddr: 0xA58, symBinAddr: 0x100003464, symSize: 0x94 }
  - { offsetInCU: 0x8658, offset: 0x8658, size: 0x8, addend: 0x0, symName: __ZNSt3__113__unwrap_iterB8ue170006INS_11__wrap_iterIP3jobEENS_18__unwrap_iter_implIS4_Lb1EEELi0EEEDTclsrT0_8__unwrapclsr3stdE7declvalIT_EEEES8_, symObjAddr: 0xAEC, symBinAddr: 0x1000034F8, symSize: 0x2C }
  - { offsetInCU: 0x869C, offset: 0x869C, size: 0x8, addend: 0x0, symName: __ZNSt3__115__sort_dispatchB8ue170006INS_17_ClassicAlgPolicyEP3jobPFbS2_S2_EEEvT0_S6_RT1_, symObjAddr: 0xB18, symBinAddr: 0x100003524, symSize: 0x64 }
  - { offsetInCU: 0x871A, offset: 0x871A, size: 0x8, addend: 0x0, symName: __ZNSt3__135__check_strict_weak_ordering_sortedB8ue170006IP3jobPFbS1_S1_EEEvT_S5_RT0_, symObjAddr: 0xB7C, symBinAddr: 0x100003588, symSize: 0x18 }
  - { offsetInCU: 0x888D, offset: 0x888D, size: 0x8, addend: 0x0, symName: __ZNSt3__123__debug_randomize_rangeB8ue170006INS_17_ClassicAlgPolicyEP3jobS3_EEvT0_T1_, symObjAddr: 0xBAC, symBinAddr: 0x1000035B8, symSize: 0x14 }
  - { offsetInCU: 0x88DE, offset: 0x88DE, size: 0x8, addend: 0x0, symName: __ZNSt3__119__partial_sort_implB8ue170006INS_17_ClassicAlgPolicyERPFb3jobS2_EPS2_S6_EET1_S7_S7_T2_OT0_, symObjAddr: 0xBC0, symBinAddr: 0x1000035CC, symSize: 0x1A0 }
  - { offsetInCU: 0x8976, offset: 0x8976, size: 0x8, addend: 0x0, symName: __ZNSt3__111__make_heapB8ue170006INS_17_ClassicAlgPolicyERPFb3jobS2_EPS2_EEvT1_S7_OT0_, symObjAddr: 0xD60, symBinAddr: 0x10000376C, symSize: 0xC0 }
  - { offsetInCU: 0x8A18, offset: 0x8A18, size: 0x8, addend: 0x0, symName: __ZNSt3__111__sort_heapB8ue170006INS_17_ClassicAlgPolicyERPFb3jobS2_EPS2_EEvT1_S7_OT0_, symObjAddr: 0x1208, symBinAddr: 0x100003C14, symSize: 0xA8 }
  - { offsetInCU: 0x8ABA, offset: 0x8ABA, size: 0x8, addend: 0x0, symName: __ZNSt3__19iter_swapB8ue170006IP3jobS2_EEvT_T0_, symObjAddr: 0x12B0, symBinAddr: 0x100003CBC, symSize: 0x2C }
  - { offsetInCU: 0x8B02, offset: 0x8B02, size: 0x8, addend: 0x0, symName: __ZNSt3__14swapB8ue170006I3jobEEvRT_S3_, symObjAddr: 0x12DC, symBinAddr: 0x100003CE8, symSize: 0x54 }
  - { offsetInCU: 0x8B77, offset: 0x8B77, size: 0x8, addend: 0x0, symName: __ZNSt3__110__pop_heapB8ue170006INS_17_ClassicAlgPolicyEPFb3jobS2_EPS2_EEvT1_S6_RT0_NS_15iterator_traitsIS6_E15difference_typeE, symObjAddr: 0x135C, symBinAddr: 0x100003D68, symSize: 0x114 }
  - { offsetInCU: 0x8C27, offset: 0x8C27, size: 0x8, addend: 0x0, symName: __ZNSt3__19__sift_upB8ue170006INS_17_ClassicAlgPolicyERPFb3jobS2_EPS2_EEvT1_S7_OT0_NS_15iterator_traitsIS7_E15difference_typeE, symObjAddr: 0x160C, symBinAddr: 0x100004018, symSize: 0x21C }
  - { offsetInCU: 0x8D2F, offset: 0x8D2F, size: 0x8, addend: 0x0, symName: __ZNSt3__112__to_addressB8ue170006INS_11__wrap_iterIP3jobEEvEEu7__decayIDTclsr19__to_address_helperIT_EE6__callclsr3stdE7declvalIRKS5_EEEEES7_, symObjAddr: 0x1850, symBinAddr: 0x10000425C, symSize: 0x24 }
  - { offsetInCU: 0x8E0A, offset: 0x8E0A, size: 0x8, addend: 0x0, symName: __ZNSt3__112__to_addressB8ue170006I3jobEEPT_S3_, symObjAddr: 0x18D0, symBinAddr: 0x1000042DC, symSize: 0x14 }
  - { offsetInCU: 0x8E3F, offset: 0x8E3F, size: 0x8, addend: 0x0, symName: __ZNSt3__17__log2iB8ue170006IlEET_S1_, symObjAddr: 0x18FC, symBinAddr: 0x100004308, symSize: 0x54 }
  - { offsetInCU: 0x8E76, offset: 0x8E76, size: 0x8, addend: 0x0, symName: __ZNSt3__112__libcpp_clzB8ue170006Em, symObjAddr: 0x1F34, symBinAddr: 0x100004940, symSize: 0x1C }
  - { offsetInCU: 0x8EA2, offset: 0x8EA2, size: 0x8, addend: 0x0, symName: __ZNSt3__124__sort3_maybe_branchlessB8ue170006INS_17_ClassicAlgPolicyERPFb3jobS2_EPS2_EENS_9enable_ifIXntsr21__use_branchless_sortIT0_T1_EE5valueEvE4typeES9_S9_S9_S8_, symObjAddr: 0x1F50, symBinAddr: 0x10000495C, symSize: 0x3C }
  - { offsetInCU: 0x8F13, offset: 0x8F13, size: 0x8, addend: 0x0, symName: __ZNSt3__124__sort4_maybe_branchlessB8ue170006INS_17_ClassicAlgPolicyERPFb3jobS2_EPS2_EENS_9enable_ifIXntsr21__use_branchless_sortIT0_T1_EE5valueEvE4typeES9_S9_S9_S9_S8_, symObjAddr: 0x1F8C, symBinAddr: 0x100004998, symSize: 0x44 }
  - { offsetInCU: 0x8F92, offset: 0x8F92, size: 0x8, addend: 0x0, symName: __ZNSt3__124__sort5_maybe_branchlessB8ue170006INS_17_ClassicAlgPolicyERPFb3jobS2_EPS2_EENS_9enable_ifIXntsr21__use_branchless_sortIT0_T1_EE5valueEvE4typeES9_S9_S9_S9_S9_S8_, symObjAddr: 0x1FD0, symBinAddr: 0x1000049DC, symSize: 0x4C }
  - { offsetInCU: 0x901F, offset: 0x901F, size: 0x8, addend: 0x0, symName: __ZNSt3__116__insertion_sortB8ue170006INS_17_ClassicAlgPolicyERPFb3jobS2_EPS2_EEvT1_S7_T0_, symObjAddr: 0x201C, symBinAddr: 0x100004A28, symSize: 0x240 }
  - { offsetInCU: 0x90E7, offset: 0x90E7, size: 0x8, addend: 0x0, symName: __ZNSt3__114__partial_sortB8ue170006INS_17_ClassicAlgPolicyERPFb3jobS2_EPS2_S6_EET1_S7_S7_T2_RT0_, symObjAddr: 0x246C, symBinAddr: 0x100004E78, symSize: 0x94 }
  - { offsetInCU: 0x916F, offset: 0x916F, size: 0x8, addend: 0x0, symName: __ZNSt3__17__sort3B8ue170006INS_17_ClassicAlgPolicyERPFb3jobS2_EPS2_EEjT1_S7_S7_T0_, symObjAddr: 0x2500, symBinAddr: 0x100004F0C, symSize: 0x32C }
  - { offsetInCU: 0x91F3, offset: 0x91F3, size: 0x8, addend: 0x0, symName: __ZNSt3__17__sort4B8ue170006INS_17_ClassicAlgPolicyERPFb3jobS2_EPS2_EEvT1_S7_S7_S7_T0_, symObjAddr: 0x39F0, symBinAddr: 0x1000063FC, symSize: 0x1F0 }
  - { offsetInCU: 0x9273, offset: 0x9273, size: 0x8, addend: 0x0, symName: __ZNSt3__17__sort5B8ue170006INS_17_ClassicAlgPolicyERPFb3jobS2_EPS2_EEvT1_S7_S7_S7_S7_T0_, symObjAddr: 0x3BE0, symBinAddr: 0x1000065EC, symSize: 0x274 }
  - { offsetInCU: 0x9302, offset: 0x9302, size: 0x8, addend: 0x0, symName: __ZNSt3__122__populate_left_bitsetB8ue170006IRPFb3jobS1_EPS1_S1_EEvT0_T_RT1_Ry, symObjAddr: 0x3E54, symBinAddr: 0x100006860, symSize: 0x130 }
  - { offsetInCU: 0x93BE, offset: 0x93BE, size: 0x8, addend: 0x0, symName: __ZNSt3__123__populate_right_bitsetB8ue170006IRPFb3jobS1_EPS1_S1_EEvT0_T_RT1_Ry, symObjAddr: 0x3F84, symBinAddr: 0x100006990, symSize: 0x128 }
  - { offsetInCU: 0x947A, offset: 0x947A, size: 0x8, addend: 0x0, symName: __ZNSt3__117__swap_bitmap_posB8ue170006INS_17_ClassicAlgPolicyEP3jobEEvT0_S4_RyS5_, symObjAddr: 0x40AC, symBinAddr: 0x100006AB8, symSize: 0x104 }
  - { offsetInCU: 0x951B, offset: 0x951B, size: 0x8, addend: 0x0, symName: __ZNSt3__133__bitset_partition_partial_blocksB8ue170006INS_17_ClassicAlgPolicyERPFb3jobS2_EPS2_S2_EEvRT1_S8_T0_RT2_RySC_, symObjAddr: 0x41B0, symBinAddr: 0x100006BBC, symSize: 0x3D4 }
  - { offsetInCU: 0x96A7, offset: 0x96A7, size: 0x8, addend: 0x0, symName: __ZNSt3__19make_pairB8ue170006IRP3jobRbEENS_4pairINS_18__unwrap_ref_decayIT_E4typeENS6_IT0_E4typeEEEOS7_OSA_, symObjAddr: 0x476C, symBinAddr: 0x100007178, symSize: 0x38 }
  - { offsetInCU: 0x96F6, offset: 0x96F6, size: 0x8, addend: 0x0, symName: __ZNSt3__112__libcpp_ctzB8ue170006Ey, symObjAddr: 0x47A4, symBinAddr: 0x1000071B0, symSize: 0x20 }
  - { offsetInCU: 0x9722, offset: 0x9722, size: 0x8, addend: 0x0, symName: __ZNSt3__113__libcpp_blsrB8ue170006Ey, symObjAddr: 0x47C4, symBinAddr: 0x1000071D0, symSize: 0x2C }
  - { offsetInCU: 0x974E, offset: 0x974E, size: 0x8, addend: 0x0, symName: __ZNSt3__112__libcpp_clzB8ue170006Ey, symObjAddr: 0x4824, symBinAddr: 0x100007230, symSize: 0x1C }
  - { offsetInCU: 0x9827, offset: 0x9827, size: 0x8, addend: 0x0, symName: __ZNSt3__119__libcpp_deallocateB8ue170006EPvmm, symObjAddr: 0x4E50, symBinAddr: 0x10000785C, symSize: 0x30 }
  - { offsetInCU: 0x986F, offset: 0x986F, size: 0x8, addend: 0x0, symName: __ZNSt3__127__do_deallocate_handle_sizeB8ue170006IJEEEvPvmDpT_, symObjAddr: 0x4E80, symBinAddr: 0x10000788C, symSize: 0x28 }
  - { offsetInCU: 0x98AD, offset: 0x98AD, size: 0x8, addend: 0x0, symName: __ZNSt3__124__libcpp_operator_deleteB8ue170006IJPvEEEvDpT_, symObjAddr: 0x4EA8, symBinAddr: 0x1000078B4, symSize: 0x24 }
  - { offsetInCU: 0x98E2, offset: 0x98E2, size: 0x8, addend: 0x0, symName: __ZNSt3__119__allocate_at_leastB8ue170006INS_9allocatorImEEEENS_19__allocation_resultINS_16allocator_traitsIT_E7pointerEEERS5_m, symObjAddr: 0x53AC, symBinAddr: 0x100007DB8, symSize: 0x40 }
  - { offsetInCU: 0x994A, offset: 0x994A, size: 0x8, addend: 0x0, symName: __ZNSt3__114__construct_atB8ue170006ImJEPmEEPT_S3_DpOT0_, symObjAddr: 0x5460, symBinAddr: 0x100007E6C, symSize: 0x20 }
  - { offsetInCU: 0x99A6, offset: 0x99A6, size: 0x8, addend: 0x0, symName: __ZNSt3__112__to_addressB8ue170006ImEEPT_S2_, symObjAddr: 0x5480, symBinAddr: 0x100007E8C, symSize: 0x14 }
  - { offsetInCU: 0x9BDD, offset: 0x9BDD, size: 0x8, addend: 0x0, symName: __ZNSt3__120__throw_length_errorB8ue170006EPKc, symObjAddr: 0x5560, symBinAddr: 0x100007F6C, symSize: 0x64 }
  - { offsetInCU: 0x9C07, offset: 0x9C07, size: 0x8, addend: 0x0, symName: __ZNSt3__117__libcpp_allocateB8ue170006Emm, symObjAddr: 0x56FC, symBinAddr: 0x100008108, symSize: 0x28 }
  - { offsetInCU: 0x9C44, offset: 0x9C44, size: 0x8, addend: 0x0, symName: __ZNSt3__121__libcpp_operator_newB8ue170006IJmEEEPvDpT_, symObjAddr: 0x5724, symBinAddr: 0x100008130, symSize: 0x24 }
  - { offsetInCU: 0x9C7D, offset: 0x9C7D, size: 0x8, addend: 0x0, symName: __ZNSt3__16fill_nB8ue170006INS_6vectorIbNS_9allocatorIbEEEEEEvNS_14__bit_iteratorIT_Lb0EXLi0EEEENS6_9size_typeEb, symObjAddr: 0x57B8, symBinAddr: 0x1000081C4, symSize: 0x94 }
  - { offsetInCU: 0x9CCF, offset: 0x9CCF, size: 0x8, addend: 0x0, symName: __ZNSt3__13minB8ue170006ImEERKT_S3_S3_, symObjAddr: 0x5BA0, symBinAddr: 0x1000085AC, symSize: 0x2C }
  - { offsetInCU: 0x9D12, offset: 0x9D12, size: 0x8, addend: 0x0, symName: __ZNSt3__16fill_nB8ue170006IPmmmEET_S2_T0_RKT1_, symObjAddr: 0x5BCC, symBinAddr: 0x1000085D8, symSize: 0x44 }
  - { offsetInCU: 0x9D75, offset: 0x9D75, size: 0x8, addend: 0x0, symName: __ZNSt3__13minB8ue170006ImNS_6__lessIvvEEEERKT_S5_S5_T0_, symObjAddr: 0x5C10, symBinAddr: 0x10000861C, symSize: 0x54 }
  - { offsetInCU: 0x9E45, offset: 0x9E45, size: 0x8, addend: 0x0, symName: __ZNSt3__18__fill_nB8ue170006IPmmmEET_S2_T0_RKT1_, symObjAddr: 0x5C98, symBinAddr: 0x1000086A4, symSize: 0x64 }
  - { offsetInCU: 0x9EA8, offset: 0x9EA8, size: 0x8, addend: 0x0, symName: __ZNSt3__121__convert_to_integralB8ue170006Em, symObjAddr: 0x5CFC, symBinAddr: 0x100008708, symSize: 0x14 }
  - { offsetInCU: 0x9ED4, offset: 0x9ED4, size: 0x8, addend: 0x0, symName: __ZNSt3__16fill_nB8ue170006IPmmiEET_S2_T0_RKT1_, symObjAddr: 0x5D40, symBinAddr: 0x10000874C, symSize: 0x44 }
  - { offsetInCU: 0x9F37, offset: 0x9F37, size: 0x8, addend: 0x0, symName: __ZNSt3__18__fill_nB8ue170006IPmmiEET_S2_T0_RKT1_, symObjAddr: 0x5D84, symBinAddr: 0x100008790, symSize: 0x64 }
  - { offsetInCU: 0x9F9A, offset: 0x9F9A, size: 0x8, addend: 0x0, symName: __ZNSt3__13minB8ue170006IiNS_6__lessIvvEEEERKT_S5_S5_T0_, symObjAddr: 0x6000, symBinAddr: 0x100008A0C, symSize: 0x54 }
  - { offsetInCU: 0x9FF4, offset: 0x9FF4, size: 0x8, addend: 0x0, symName: __ZNSt3__13maxB8ue170006ImEERKT_S3_S3_, symObjAddr: 0x6724, symBinAddr: 0x100009130, symSize: 0x2C }
  - { offsetInCU: 0xA238, offset: 0xA238, size: 0x8, addend: 0x0, symName: __ZNSt3__13maxB8ue170006ImNS_6__lessIvvEEEERKT_S5_S5_T0_, symObjAddr: 0x6808, symBinAddr: 0x100009214, symSize: 0x54 }
  - { offsetInCU: 0xA292, offset: 0xA292, size: 0x8, addend: 0x0, symName: __ZNSt3__119__allocate_at_leastB8ue170006INS_9allocatorI3jobEEEENS_19__allocation_resultINS_16allocator_traitsIT_E7pointerEEERS6_m, symObjAddr: 0x6978, symBinAddr: 0x100009384, symSize: 0x40 }
  - { offsetInCU: 0xA2D5, offset: 0xA2D5, size: 0x8, addend: 0x0, symName: __ZNSt3__142__uninitialized_allocator_move_if_noexceptB8ue170006INS_9allocatorI3jobEENS_16reverse_iteratorIPS2_EES6_S2_vEET1_RT_T0_SA_S7_, symObjAddr: 0x6B60, symBinAddr: 0x10000956C, symSize: 0xE8 }
  - { offsetInCU: 0xA352, offset: 0xA352, size: 0x8, addend: 0x0, symName: __ZNSt3__14swapB8ue170006IP3jobEEvRT_S4_, symObjAddr: 0x6C94, symBinAddr: 0x1000096A0, symSize: 0x3C }
  - { offsetInCU: 0xA3A3, offset: 0xA3A3, size: 0x8, addend: 0x0, symName: __ZNSt3__1neB8ue170006IP3jobS2_EEbRKNS_16reverse_iteratorIT_EERKNS3_IT0_EE, symObjAddr: 0x6D98, symBinAddr: 0x1000097A4, symSize: 0x48 }
  - { offsetInCU: 0xA414, offset: 0xA414, size: 0x8, addend: 0x0, symName: __ZNSt3__114__construct_atB8ue170006I3jobJS1_EPS1_EEPT_S4_DpOT0_, symObjAddr: 0x6DE0, symBinAddr: 0x1000097EC, symSize: 0x34 }
  - { offsetInCU: 0xA484, offset: 0xA484, size: 0x8, addend: 0x0, symName: __ZNSt3__112__to_addressB8ue170006INS_16reverse_iteratorIP3jobEEvEEu7__decayIDTclsr19__to_address_helperIT_EE6__callclsr3stdE7declvalIRKS5_EEEEES7_, symObjAddr: 0x6E14, symBinAddr: 0x100009820, symSize: 0x24 }
  - { offsetInCU: 0xA4BA, offset: 0xA4BA, size: 0x8, addend: 0x0, symName: __ZNSt3__14moveB8ue170006INS_16reverse_iteratorIP3jobEES4_EET0_T_S6_S5_, symObjAddr: 0x6E80, symBinAddr: 0x10000988C, symSize: 0x78 }
  - { offsetInCU: 0xA53D, offset: 0xA53D, size: 0x8, addend: 0x0, symName: __ZNSt3__16__moveB8ue170006INS_17_ClassicAlgPolicyENS_16reverse_iteratorIP3jobEES5_S5_EENS_4pairIT0_T2_EES7_T1_S8_, symObjAddr: 0x6F68, symBinAddr: 0x100009974, symSize: 0x64 }
  - { offsetInCU: 0xA5A9, offset: 0xA5A9, size: 0x8, addend: 0x0, symName: __ZNSt3__123__dispatch_copy_or_moveB8ue170006INS_17_ClassicAlgPolicyENS_11__move_loopIS1_EENS_14__move_trivialENS_16reverse_iteratorIP3jobEES8_S8_EENS_4pairIT2_T4_EESA_T3_SB_, symObjAddr: 0x6FCC, symBinAddr: 0x1000099D8, symSize: 0x64 }
  - { offsetInCU: 0xA627, offset: 0xA627, size: 0x8, addend: 0x0, symName: __ZNSt3__121__unwrap_and_dispatchB8ue170006INS_10__overloadINS_11__move_loopINS_17_ClassicAlgPolicyEEENS_14__move_trivialEEENS_16reverse_iteratorIP3jobEESA_SA_Li0EEENS_4pairIT0_T2_EESC_T1_SD_, symObjAddr: 0x7030, symBinAddr: 0x100009A3C, symSize: 0x12C }
  - { offsetInCU: 0xA6B7, offset: 0xA6B7, size: 0x8, addend: 0x0, symName: __ZNSt3__114__unwrap_rangeB8ue170006INS_16reverse_iteratorIP3jobEES4_EENS_4pairIT0_S6_EET_S8_, symObjAddr: 0x715C, symBinAddr: 0x100009B68, symSize: 0x84 }
  - { offsetInCU: 0xA802, offset: 0xA802, size: 0x8, addend: 0x0, symName: __ZNSt3__113__unwrap_iterB8ue170006INS_16reverse_iteratorIP3jobEENS_18__unwrap_iter_implIS4_Lb0EEELi0EEEDTclsrT0_8__unwrapclsr3stdE7declvalIT_EEEES8_, symObjAddr: 0x7288, symBinAddr: 0x100009C94, symSize: 0x44 }
  - { offsetInCU: 0xA846, offset: 0xA846, size: 0x8, addend: 0x0, symName: __ZNSt3__19make_pairB8ue170006INS_16reverse_iteratorIP3jobEES4_EENS_4pairINS_18__unwrap_ref_decayIT_E4typeENS6_IT0_E4typeEEEOS7_OSA_, symObjAddr: 0x72CC, symBinAddr: 0x100009CD8, symSize: 0x38 }
  - { offsetInCU: 0xA895, offset: 0xA895, size: 0x8, addend: 0x0, symName: __ZNSt3__114__rewrap_rangeB8ue170006INS_16reverse_iteratorIP3jobEES4_EET_S5_T0_, symObjAddr: 0x7304, symBinAddr: 0x100009D10, symSize: 0x5C }
  - { offsetInCU: 0xA8E1, offset: 0xA8E1, size: 0x8, addend: 0x0, symName: __ZNSt3__113__rewrap_iterB8ue170006INS_16reverse_iteratorIP3jobEES4_NS_18__unwrap_iter_implIS4_Lb0EEEEET_S7_T0_, symObjAddr: 0x7360, symBinAddr: 0x100009D6C, symSize: 0x88 }
  - { offsetInCU: 0xA97E, offset: 0xA97E, size: 0x8, addend: 0x0, symName: __ZNSt3__116__pad_and_outputB8ue170006IcNS_11char_traitsIcEEEENS_19ostreambuf_iteratorIT_T0_EES6_PKS4_S8_S8_RNS_8ios_baseES4_, symObjAddr: 0x7900, symBinAddr: 0x10000A30C, symSize: 0x248 }
  - { offsetInCU: 0xAA4D, offset: 0xAA4D, size: 0x8, addend: 0x0, symName: __ZNSt3__112__to_addressB8ue170006IKcEEPT_S3_, symObjAddr: 0x7E70, symBinAddr: 0x10000A87C, symSize: 0x14 }
  - { offsetInCU: 0xAAB5, offset: 0xAAB5, size: 0x8, addend: 0x0, symName: __ZNSt3__19use_facetB8ue170006INS_5ctypeIcEEEERKT_RKNS_6localeE, symObjAddr: 0x8148, symBinAddr: 0x10000AB54, symSize: 0x2C }
  - { offsetInCU: 0xAF82, offset: 0xAF82, size: 0x8, addend: 0x0, symName: __ZNSt3__118__constexpr_strlenB8ue170006EPKc, symObjAddr: 0x8228, symBinAddr: 0x10000AC34, symSize: 0x24 }
  - { offsetInCU: 0xAFAE, offset: 0xAFAE, size: 0x8, addend: 0x0, symName: __ZNSt3__122__make_exception_guardB8ue170006INS_6vectorI3jobNS_9allocatorIS2_EEE16__destroy_vectorEEENS_28__exception_guard_exceptionsIT_EES8_, symObjAddr: 0x8448, symBinAddr: 0x10000AE54, symSize: 0x40 }
  - { offsetInCU: 0xAFE3, offset: 0xAFE3, size: 0x8, addend: 0x0, symName: __ZNSt3__130__uninitialized_allocator_copyB8ue170006INS_9allocatorI3jobEEPS2_S4_S4_EET2_RT_T0_T1_S5_, symObjAddr: 0x8670, symBinAddr: 0x10000B07C, symSize: 0x80 }
  - { offsetInCU: 0xB080, offset: 0xB080, size: 0x8, addend: 0x0, symName: __ZNSt3__114__unwrap_rangeB8ue170006IP3jobS2_EENS_4pairIT0_S4_EET_S6_, symObjAddr: 0x86F0, symBinAddr: 0x10000B0FC, symSize: 0x60 }
  - { offsetInCU: 0xB0CC, offset: 0xB0CC, size: 0x8, addend: 0x0, symName: __ZNSt3__135__uninitialized_allocator_copy_implB8ue170006INS_9allocatorI3jobEEPS2_S4_S4_EET2_RT_T0_T1_S5_, symObjAddr: 0x8750, symBinAddr: 0x10000B15C, symSize: 0xFC }
  - { offsetInCU: 0xB16A, offset: 0xB16A, size: 0x8, addend: 0x0, symName: __ZNSt3__113__unwrap_iterB8ue170006IP3jobNS_18__unwrap_iter_implIS2_Lb1EEELi0EEEDTclsrT0_8__unwrapclsr3stdE7declvalIT_EEEES6_, symObjAddr: 0x884C, symBinAddr: 0x10000B258, symSize: 0x24 }
  - { offsetInCU: 0xB1AE, offset: 0xB1AE, size: 0x8, addend: 0x0, symName: __ZNSt3__113__rewrap_iterB8ue170006IP3jobS2_NS_18__unwrap_iter_implIS2_Lb1EEEEET_S5_T0_, symObjAddr: 0x8870, symBinAddr: 0x10000B27C, symSize: 0x50 }
  - { offsetInCU: 0xB203, offset: 0xB203, size: 0x8, addend: 0x0, symName: __ZNSt3__19make_pairB8ue170006IP3jobS2_EENS_4pairINS_18__unwrap_ref_decayIT_E4typeENS4_IT0_E4typeEEEOS5_OS8_, symObjAddr: 0x88C0, symBinAddr: 0x10000B2CC, symSize: 0x38 }
  - { offsetInCU: 0xB2FF, offset: 0xB2FF, size: 0x8, addend: 0x0, symName: __ZNSt3__122__make_exception_guardB8ue170006INS_29_AllocatorDestroyRangeReverseINS_9allocatorI3jobEEPS3_EEEENS_28__exception_guard_exceptionsIT_EES8_, symObjAddr: 0x8968, symBinAddr: 0x10000B374, symSize: 0x4C }
  - { offsetInCU: 0xB335, offset: 0xB335, size: 0x8, addend: 0x0, symName: __ZNSt3__119__allocator_destroyB8ue170006INS_9allocatorI3jobEENS_16reverse_iteratorIPS2_EES6_EEvRT_T0_T1_, symObjAddr: 0x8BF0, symBinAddr: 0x10000B5FC, symSize: 0x70 }
  - { offsetInCU: 0xB638, offset: 0xB638, size: 0x8, addend: 0x0, symName: __ZSt28__throw_bad_array_new_lengthB8ue170006v, symObjAddr: 0x56C8, symBinAddr: 0x1000080D4, symSize: 0x34 }
  - { offsetInCU: 0xBC62, offset: 0xBC62, size: 0x8, addend: 0x0, symName: __ZNSt3__16vectorI3jobNS_9allocatorIS1_EEE26__swap_out_circular_bufferERNS_14__split_bufferIS1_RS3_EE, symObjAddr: 0x6558, symBinAddr: 0x100008F64, symSize: 0x110 }
  - { offsetInCU: 0xE117, offset: 0xE117, size: 0x8, addend: 0x0, symName: __Z10comparison3jobS_, symObjAddr: 0x0, symBinAddr: 0x100002A0C, symSize: 0x98 }
  - { offsetInCU: 0xE151, offset: 0xE151, size: 0x8, addend: 0x0, symName: __Z16printJobScheduleNSt3__16vectorI3jobNS_9allocatorIS1_EEEE, symObjAddr: 0x98, symBinAddr: 0x100002AA4, symSize: 0x2C8 }
  - { offsetInCU: 0xE1EE, offset: 0xE1EE, size: 0x8, addend: 0x0, symName: __ZNSt3__16vectorI3jobNS_9allocatorIS1_EEE5beginB8ue170006Ev, symObjAddr: 0x3A8, symBinAddr: 0x100002DB4, symSize: 0x30 }
  - { offsetInCU: 0xE214, offset: 0xE214, size: 0x8, addend: 0x0, symName: __ZNSt3__16vectorI3jobNS_9allocatorIS1_EEE3endB8ue170006Ev, symObjAddr: 0x3D8, symBinAddr: 0x100002DE4, symSize: 0x30 }
  - { offsetInCU: 0xE23A, offset: 0xE23A, size: 0x8, addend: 0x0, symName: __ZNKSt3__16vectorI3jobNS_9allocatorIS1_EEE4sizeB8ue170006Ev, symObjAddr: 0x408, symBinAddr: 0x100002E14, symSize: 0x28 }
  - { offsetInCU: 0xE25F, offset: 0xE25F, size: 0x8, addend: 0x0, symName: __ZNSt3__16vectorI3jobNS_9allocatorIS1_EEEC1B8ue170006Ev, symObjAddr: 0x430, symBinAddr: 0x100002E3C, symSize: 0x2C }
  - { offsetInCU: 0xE288, offset: 0xE288, size: 0x8, addend: 0x0, symName: __ZNSt3__16vectorIbNS_9allocatorIbEEEC1EmRKb, symObjAddr: 0x45C, symBinAddr: 0x100002E68, symSize: 0x3C }
  - { offsetInCU: 0xE2D1, offset: 0xE2D1, size: 0x8, addend: 0x0, symName: __ZNSt3__16vectorI3jobNS_9allocatorIS1_EEEixB8ue170006Em, symObjAddr: 0x4C4, symBinAddr: 0x100002ED0, symSize: 0x2C }
  - { offsetInCU: 0xE307, offset: 0xE307, size: 0x8, addend: 0x0, symName: __ZNSt3__16vectorIbNS_9allocatorIbEEEixB8ue170006Em, symObjAddr: 0x4F0, symBinAddr: 0x100002EFC, symSize: 0x3C }
  - { offsetInCU: 0xE33B, offset: 0xE33B, size: 0x8, addend: 0x0, symName: __ZNKSt3__115__bit_referenceINS_6vectorIbNS_9allocatorIbEEEELb1EEcvbB8ue170006Ev, symObjAddr: 0x52C, symBinAddr: 0x100002F38, symSize: 0x2C }
  - { offsetInCU: 0xE360, offset: 0xE360, size: 0x8, addend: 0x0, symName: __ZNSt3__16vectorI3jobNS_9allocatorIS1_EEE9push_backB8ue170006ERKS1_, symObjAddr: 0x558, symBinAddr: 0x100002F64, symSize: 0x6C }
  - { offsetInCU: 0xE395, offset: 0xE395, size: 0x8, addend: 0x0, symName: __ZNSt3__115__bit_referenceINS_6vectorIbNS_9allocatorIbEEEELb1EEaSB8ue170006Eb, symObjAddr: 0x5C4, symBinAddr: 0x100002FD0, symSize: 0x6C }
  - { offsetInCU: 0xE3C8, offset: 0xE3C8, size: 0x8, addend: 0x0, symName: __ZNSt3__16vectorIbNS_9allocatorIbEEED1B8ue170006Ev, symObjAddr: 0x6AC, symBinAddr: 0x1000030B8, symSize: 0x2C }
  - { offsetInCU: 0xE3F1, offset: 0xE3F1, size: 0x8, addend: 0x0, symName: __ZNSt3__16vectorI3jobNS_9allocatorIS1_EEED1B8ue170006Ev, symObjAddr: 0x6E4, symBinAddr: 0x1000030F0, symSize: 0x2C }
  - { offsetInCU: 0xE41A, offset: 0xE41A, size: 0x8, addend: 0x0, symName: _main, symObjAddr: 0x710, symBinAddr: 0x10000311C, symSize: 0x168 }
  - { offsetInCU: 0xE48A, offset: 0xE48A, size: 0x8, addend: 0x0, symName: __ZNSt3__16vectorI3jobNS_9allocatorIS1_EEEC1ERKS4_, symObjAddr: 0x878, symBinAddr: 0x100003284, symSize: 0x34 }
  - { offsetInCU: 0xE4C4, offset: 0xE4C4, size: 0x8, addend: 0x0, symName: __ZNSt3__16vectorI3jobNS_9allocatorIS1_EEE11__make_iterB8ue170006EPS1_, symObjAddr: 0x8AC, symBinAddr: 0x1000032B8, symSize: 0x30 }
  - { offsetInCU: 0xE4F8, offset: 0xE4F8, size: 0x8, addend: 0x0, symName: __ZNSt3__111__wrap_iterIP3jobEC1B8ue170006ES2_, symObjAddr: 0x8DC, symBinAddr: 0x1000032E8, symSize: 0x34 }
  - { offsetInCU: 0xE52F, offset: 0xE52F, size: 0x8, addend: 0x0, symName: __ZNSt3__111__wrap_iterIP3jobEC2B8ue170006ES2_, symObjAddr: 0x910, symBinAddr: 0x10000331C, symSize: 0x20 }
  - { offsetInCU: 0xE566, offset: 0xE566, size: 0x8, addend: 0x0, symName: __ZNSt3__18_IterOpsINS_17_ClassicAlgPolicyEE4nextB8ue170006IP3jobEET_S6_S6_, symObjAddr: 0xB94, symBinAddr: 0x1000035A0, symSize: 0x18 }
  - { offsetInCU: 0xE59D, offset: 0xE59D, size: 0x8, addend: 0x0, symName: __ZNSt3__18_IterOpsINS_17_ClassicAlgPolicyEE9iter_swapB8ue170006IRP3jobS6_EEvOT_OT0_, symObjAddr: 0xE20, symBinAddr: 0x10000382C, symSize: 0x34 }
  - { offsetInCU: 0xE5E5, offset: 0xE5E5, size: 0x8, addend: 0x0, symName: __ZNSt3__18_IterOpsINS_17_ClassicAlgPolicyEE11__iter_moveB8ue170006IRP3jobEENS_9enable_ifIXsr12is_referenceIDTdeclsr3stdE7declvalIRT_EEEEE5valueEDTclsr3stdE4movedeclsr3stdE7declvalIS9_EEEEE4typeEOS8_, symObjAddr: 0x1330, symBinAddr: 0x100003D3C, symSize: 0x28 }
  - { offsetInCU: 0xE611, offset: 0xE611, size: 0x8, addend: 0x0, symName: __ZNSt3__18_IterOpsINS_17_ClassicAlgPolicyEE25__validate_iter_referenceB8ue170006IRP3jobEEvv, symObjAddr: 0x1358, symBinAddr: 0x100003D64, symSize: 0x4 }
  - { offsetInCU: 0xE62F, offset: 0xE62F, size: 0x8, addend: 0x0, symName: __ZNSt3__118__unwrap_iter_implINS_11__wrap_iterIP3jobEELb1EE8__unwrapB8ue170006ES4_, symObjAddr: 0x1828, symBinAddr: 0x100004234, symSize: 0x28 }
  - { offsetInCU: 0xE65C, offset: 0xE65C, size: 0x8, addend: 0x0, symName: __ZNSt3__119__to_address_helperINS_11__wrap_iterIP3jobEEvE6__callB8ue170006ERKS4_, symObjAddr: 0x1874, symBinAddr: 0x100004280, symSize: 0x30 }
  - { offsetInCU: 0xE67F, offset: 0xE67F, size: 0x8, addend: 0x0, symName: __ZNSt3__114pointer_traitsINS_11__wrap_iterIP3jobEEE10to_addressB8ue170006ES4_, symObjAddr: 0x18A4, symBinAddr: 0x1000042B0, symSize: 0x2C }
  - { offsetInCU: 0xE6A2, offset: 0xE6A2, size: 0x8, addend: 0x0, symName: __ZNKSt3__111__wrap_iterIP3jobE4baseB8ue170006Ev, symObjAddr: 0x18E4, symBinAddr: 0x1000042F0, symSize: 0x18 }
  - { offsetInCU: 0xE6CC, offset: 0xE6CC, size: 0x8, addend: 0x0, symName: __ZNSt3__18_IterOpsINS_17_ClassicAlgPolicyEE9iter_swapB8ue170006IRP3jobS5_EEvOT_OT0_, symObjAddr: 0x282C, symBinAddr: 0x100005238, symSize: 0x34 }
  - { offsetInCU: 0xE70F, offset: 0xE70F, size: 0x8, addend: 0x0, symName: __ZNSt3__18_IterOpsINS_17_ClassicAlgPolicyEE9iter_swapB8ue170006IP3jobS5_EEvOT_OT0_, symObjAddr: 0x47F0, symBinAddr: 0x1000071FC, symSize: 0x34 }
  - { offsetInCU: 0xE76B, offset: 0xE76B, size: 0x8, addend: 0x0, symName: __ZNSt3__14pairIP3jobbEC1B8ue170006ERKS2_RKb, symObjAddr: 0x4840, symBinAddr: 0x10000724C, symSize: 0x3C }
  - { offsetInCU: 0xE7B0, offset: 0xE7B0, size: 0x8, addend: 0x0, symName: __ZNSt3__14pairIP3jobbEC2B8ue170006ERKS2_RKb, symObjAddr: 0x487C, symBinAddr: 0x100007288, symSize: 0x38 }
  - { offsetInCU: 0xE7F5, offset: 0xE7F5, size: 0x8, addend: 0x0, symName: __ZNSt3__16vectorI3jobNS_9allocatorIS1_EEEC2B8ue170006Ev, symObjAddr: 0x48B4, symBinAddr: 0x1000072C0, symSize: 0x44 }
  - { offsetInCU: 0xE828, offset: 0xE828, size: 0x8, addend: 0x0, symName: __ZNSt3__117__compressed_pairIP3jobNS_9allocatorIS1_EEEC1B8ue170006IDnNS_18__default_init_tagEEEOT_OT0_, symObjAddr: 0x48F8, symBinAddr: 0x100007304, symSize: 0x3C }
  - { offsetInCU: 0xE87F, offset: 0xE87F, size: 0x8, addend: 0x0, symName: __ZNSt3__117__compressed_pairIP3jobNS_9allocatorIS1_EEEC2B8ue170006IDnNS_18__default_init_tagEEEOT_OT0_, symObjAddr: 0x4934, symBinAddr: 0x100007340, symSize: 0x40 }
  - { offsetInCU: 0xE8D6, offset: 0xE8D6, size: 0x8, addend: 0x0, symName: __ZNSt3__122__compressed_pair_elemIP3jobLi0ELb0EEC2B8ue170006IDnvEEOT_, symObjAddr: 0x4974, symBinAddr: 0x100007380, symSize: 0x1C }
  - { offsetInCU: 0xE917, offset: 0xE917, size: 0x8, addend: 0x0, symName: __ZNSt3__122__compressed_pair_elemINS_9allocatorI3jobEELi1ELb1EEC2B8ue170006ENS_18__default_init_tagE, symObjAddr: 0x4990, symBinAddr: 0x10000739C, symSize: 0x2C }
  - { offsetInCU: 0xE94B, offset: 0xE94B, size: 0x8, addend: 0x0, symName: __ZNSt3__19allocatorI3jobEC2B8ue170006Ev, symObjAddr: 0x49BC, symBinAddr: 0x1000073C8, symSize: 0x2C }
  - { offsetInCU: 0xE974, offset: 0xE974, size: 0x8, addend: 0x0, symName: __ZNSt3__116__non_trivial_ifILb1ENS_9allocatorI3jobEEEC2B8ue170006Ev, symObjAddr: 0x49E8, symBinAddr: 0x1000073F4, symSize: 0x14 }
  - { offsetInCU: 0xE99D, offset: 0xE99D, size: 0x8, addend: 0x0, symName: __ZNSt3__16vectorI3jobNS_9allocatorIS1_EEED2B8ue170006Ev, symObjAddr: 0x49FC, symBinAddr: 0x100007408, symSize: 0x3C }
  - { offsetInCU: 0xE9C6, offset: 0xE9C6, size: 0x8, addend: 0x0, symName: __ZNSt3__16vectorI3jobNS_9allocatorIS1_EEE16__destroy_vectorC1B8ue170006ERS4_, symObjAddr: 0x4A38, symBinAddr: 0x100007444, symSize: 0x34 }
  - { offsetInCU: 0xE9FE, offset: 0xE9FE, size: 0x8, addend: 0x0, symName: __ZNSt3__16vectorI3jobNS_9allocatorIS1_EEE16__destroy_vectorclB8ue170006Ev, symObjAddr: 0x4A6C, symBinAddr: 0x100007478, symSize: 0x90 }
  - { offsetInCU: 0xEA23, offset: 0xEA23, size: 0x8, addend: 0x0, symName: __ZNSt3__16vectorI3jobNS_9allocatorIS1_EEE16__destroy_vectorC2B8ue170006ERS4_, symObjAddr: 0x4AFC, symBinAddr: 0x100007508, symSize: 0x20 }
  - { offsetInCU: 0xEA5B, offset: 0xEA5B, size: 0x8, addend: 0x0, symName: __ZNSt3__16vectorI3jobNS_9allocatorIS1_EEE7__clearB8ue170006Ev, symObjAddr: 0x4B1C, symBinAddr: 0x100007528, symSize: 0x28 }
  - { offsetInCU: 0xEA80, offset: 0xEA80, size: 0x8, addend: 0x0, symName: __ZNKSt3__16vectorI3jobNS_9allocatorIS1_EEE17__annotate_deleteB8ue170006Ev, symObjAddr: 0x4B44, symBinAddr: 0x100007550, symSize: 0xD4 }
  - { offsetInCU: 0xEAA5, offset: 0xEAA5, size: 0x8, addend: 0x0, symName: __ZNSt3__116allocator_traitsINS_9allocatorI3jobEEE10deallocateB8ue170006ERS3_PS2_m, symObjAddr: 0x4C18, symBinAddr: 0x100007624, symSize: 0x34 }
  - { offsetInCU: 0xEAE7, offset: 0xEAE7, size: 0x8, addend: 0x0, symName: __ZNSt3__16vectorI3jobNS_9allocatorIS1_EEE7__allocB8ue170006Ev, symObjAddr: 0x4C4C, symBinAddr: 0x100007658, symSize: 0x28 }
  - { offsetInCU: 0xEB0C, offset: 0xEB0C, size: 0x8, addend: 0x0, symName: __ZNKSt3__16vectorI3jobNS_9allocatorIS1_EEE8capacityB8ue170006Ev, symObjAddr: 0x4C74, symBinAddr: 0x100007680, symSize: 0x40 }
  - { offsetInCU: 0xEB31, offset: 0xEB31, size: 0x8, addend: 0x0, symName: __ZNSt3__16vectorI3jobNS_9allocatorIS1_EEE22__base_destruct_at_endB8ue170006EPS1_, symObjAddr: 0x4CB4, symBinAddr: 0x1000076C0, symSize: 0xA0 }
  - { offsetInCU: 0xEB74, offset: 0xEB74, size: 0x8, addend: 0x0, symName: __ZNSt3__116allocator_traitsINS_9allocatorI3jobEEE7destroyB8ue170006IS2_vEEvRS3_PT_, symObjAddr: 0x4D54, symBinAddr: 0x100007760, symSize: 0x2C }
  - { offsetInCU: 0xEBB1, offset: 0xEBB1, size: 0x8, addend: 0x0, symName: __ZNSt3__19allocatorI3jobE7destroyB8ue170006EPS1_, symObjAddr: 0x4D80, symBinAddr: 0x10000778C, symSize: 0x14 }
  - { offsetInCU: 0xEBE4, offset: 0xEBE4, size: 0x8, addend: 0x0, symName: __ZNKSt3__16vectorI3jobNS_9allocatorIS1_EEE31__annotate_contiguous_containerB8ue170006EPKvS6_S6_S6_, symObjAddr: 0x4D94, symBinAddr: 0x1000077A0, symSize: 0x20 }
  - { offsetInCU: 0xEC35, offset: 0xEC35, size: 0x8, addend: 0x0, symName: __ZNKSt3__16vectorI3jobNS_9allocatorIS1_EEE4dataB8ue170006Ev, symObjAddr: 0x4DB4, symBinAddr: 0x1000077C0, symSize: 0x28 }
  - { offsetInCU: 0xEC5A, offset: 0xEC5A, size: 0x8, addend: 0x0, symName: __ZNSt3__19allocatorI3jobE10deallocateB8ue170006EPS1_m, symObjAddr: 0x4DDC, symBinAddr: 0x1000077E8, symSize: 0x74 }
  - { offsetInCU: 0xEC9B, offset: 0xEC9B, size: 0x8, addend: 0x0, symName: __ZNSt3__117__compressed_pairIP3jobNS_9allocatorIS1_EEE6secondB8ue170006Ev, symObjAddr: 0x4ECC, symBinAddr: 0x1000078D8, symSize: 0x24 }
  - { offsetInCU: 0xECC0, offset: 0xECC0, size: 0x8, addend: 0x0, symName: __ZNSt3__122__compressed_pair_elemINS_9allocatorI3jobEELi1ELb1EE5__getB8ue170006Ev, symObjAddr: 0x4EF0, symBinAddr: 0x1000078FC, symSize: 0x14 }
  - { offsetInCU: 0xECE5, offset: 0xECE5, size: 0x8, addend: 0x0, symName: __ZNKSt3__16vectorI3jobNS_9allocatorIS1_EEE9__end_capB8ue170006Ev, symObjAddr: 0x4F04, symBinAddr: 0x100007910, symSize: 0x28 }
  - { offsetInCU: 0xED0A, offset: 0xED0A, size: 0x8, addend: 0x0, symName: __ZNKSt3__117__compressed_pairIP3jobNS_9allocatorIS1_EEE5firstB8ue170006Ev, symObjAddr: 0x4F2C, symBinAddr: 0x100007938, symSize: 0x24 }
  - { offsetInCU: 0xED2F, offset: 0xED2F, size: 0x8, addend: 0x0, symName: __ZNKSt3__122__compressed_pair_elemIP3jobLi0ELb0EE5__getB8ue170006Ev, symObjAddr: 0x4F50, symBinAddr: 0x10000795C, symSize: 0x14 }
  - { offsetInCU: 0xED54, offset: 0xED54, size: 0x8, addend: 0x0, symName: __ZNSt3__16vectorIbNS_9allocatorIbEEEC2EmRKb, symObjAddr: 0x4F64, symBinAddr: 0x100007970, symSize: 0x90 }
  - { offsetInCU: 0xEDA2, offset: 0xEDA2, size: 0x8, addend: 0x0, symName: __ZNSt3__117__compressed_pairImNS_9allocatorImEEEC1B8ue170006IiNS_18__default_init_tagEEEOT_OT0_, symObjAddr: 0x4FF4, symBinAddr: 0x100007A00, symSize: 0x3C }
  - { offsetInCU: 0xEDF9, offset: 0xEDF9, size: 0x8, addend: 0x0, symName: __ZNSt3__16vectorIbNS_9allocatorIbEEE11__vallocateB8ue170006Em, symObjAddr: 0x5030, symBinAddr: 0x100007A3C, symSize: 0x10C }
  - { offsetInCU: 0xEE59, offset: 0xEE59, size: 0x8, addend: 0x0, symName: __ZNSt3__16vectorIbNS_9allocatorIbEEE18__construct_at_endB8ue170006Emb, symObjAddr: 0x513C, symBinAddr: 0x100007B48, symSize: 0x108 }
  - { offsetInCU: 0xEEAC, offset: 0xEEAC, size: 0x8, addend: 0x0, symName: __ZNSt3__117__compressed_pairImNS_9allocatorImEEEC2B8ue170006IiNS_18__default_init_tagEEEOT_OT0_, symObjAddr: 0x5244, symBinAddr: 0x100007C50, symSize: 0x40 }
  - { offsetInCU: 0xEF03, offset: 0xEF03, size: 0x8, addend: 0x0, symName: __ZNSt3__122__compressed_pair_elemImLi0ELb0EEC2B8ue170006IivEEOT_, symObjAddr: 0x5284, symBinAddr: 0x100007C90, symSize: 0x24 }
  - { offsetInCU: 0xEF44, offset: 0xEF44, size: 0x8, addend: 0x0, symName: __ZNSt3__122__compressed_pair_elemINS_9allocatorImEELi1ELb1EEC2B8ue170006ENS_18__default_init_tagE, symObjAddr: 0x52A8, symBinAddr: 0x100007CB4, symSize: 0x2C }
  - { offsetInCU: 0xEF78, offset: 0xEF78, size: 0x8, addend: 0x0, symName: __ZNSt3__19allocatorImEC2B8ue170006Ev, symObjAddr: 0x52D4, symBinAddr: 0x100007CE0, symSize: 0x2C }
  - { offsetInCU: 0xEFA1, offset: 0xEFA1, size: 0x8, addend: 0x0, symName: __ZNSt3__116__non_trivial_ifILb1ENS_9allocatorImEEEC2B8ue170006Ev, symObjAddr: 0x5300, symBinAddr: 0x100007D0C, symSize: 0x14 }
  - { offsetInCU: 0xEFCA, offset: 0xEFCA, size: 0x8, addend: 0x0, symName: __ZNKSt3__16vectorIbNS_9allocatorIbEEE8max_sizeEv, symObjAddr: 0x5314, symBinAddr: 0x100007D20, symSize: 0x7C }
  - { offsetInCU: 0xF00E, offset: 0xF00E, size: 0x8, addend: 0x0, symName: __ZNKSt3__16vectorIbNS_9allocatorIbEEE20__throw_length_errorB8ue170006Ev, symObjAddr: 0x5390, symBinAddr: 0x100007D9C, symSize: 0x1C }
  - { offsetInCU: 0xF033, offset: 0xF033, size: 0x8, addend: 0x0, symName: __ZNSt3__16vectorIbNS_9allocatorIbEEE7__allocB8ue170006Ev, symObjAddr: 0x53EC, symBinAddr: 0x100007DF8, symSize: 0x28 }
  - { offsetInCU: 0xF058, offset: 0xF058, size: 0x8, addend: 0x0, symName: __ZNSt3__16vectorIbNS_9allocatorIbEEE26__external_cap_to_internalB8ue170006Em, symObjAddr: 0x5414, symBinAddr: 0x100007E20, symSize: 0x24 }
  - { offsetInCU: 0xF07C, offset: 0xF07C, size: 0x8, addend: 0x0, symName: __ZNSt3__16vectorIbNS_9allocatorIbEEE5__capB8ue170006Ev, symObjAddr: 0x5438, symBinAddr: 0x100007E44, symSize: 0x28 }
  - { offsetInCU: 0xF0AB, offset: 0xF0AB, size: 0x8, addend: 0x0, symName: __ZNSt3__116allocator_traitsINS_9allocatorImEEE8max_sizeB8ue170006IS2_vEEmRKS2_, symObjAddr: 0x5494, symBinAddr: 0x100007EA0, symSize: 0x24 }
  - { offsetInCU: 0xF0D9, offset: 0xF0D9, size: 0x8, addend: 0x0, symName: __ZNKSt3__16vectorIbNS_9allocatorIbEEE7__allocB8ue170006Ev, symObjAddr: 0x54B8, symBinAddr: 0x100007EC4, symSize: 0x28 }
  - { offsetInCU: 0xF0FE, offset: 0xF0FE, size: 0x8, addend: 0x0, symName: __ZNSt3__114numeric_limitsImE3maxB8ue170006Ev, symObjAddr: 0x54E0, symBinAddr: 0x100007EEC, symSize: 0x14 }
  - { offsetInCU: 0xF112, offset: 0xF112, size: 0x8, addend: 0x0, symName: __ZNSt3__16vectorIbNS_9allocatorIbEEE26__internal_cap_to_externalB8ue170006Em, symObjAddr: 0x54F4, symBinAddr: 0x100007F00, symSize: 0x18 }
  - { offsetInCU: 0xF136, offset: 0xF136, size: 0x8, addend: 0x0, symName: __ZNKSt3__19allocatorImE8max_sizeB8ue170006Ev, symObjAddr: 0x550C, symBinAddr: 0x100007F18, symSize: 0x14 }
  - { offsetInCU: 0xF15B, offset: 0xF15B, size: 0x8, addend: 0x0, symName: __ZNKSt3__117__compressed_pairImNS_9allocatorImEEE6secondB8ue170006Ev, symObjAddr: 0x5520, symBinAddr: 0x100007F2C, symSize: 0x24 }
  - { offsetInCU: 0xF180, offset: 0xF180, size: 0x8, addend: 0x0, symName: __ZNKSt3__122__compressed_pair_elemINS_9allocatorImEELi1ELb1EE5__getB8ue170006Ev, symObjAddr: 0x5544, symBinAddr: 0x100007F50, symSize: 0x14 }
  - { offsetInCU: 0xF1A5, offset: 0xF1A5, size: 0x8, addend: 0x0, symName: __ZNSt3__123__libcpp_numeric_limitsImLb1EE3maxB8ue170006Ev, symObjAddr: 0x5558, symBinAddr: 0x100007F64, symSize: 0x8 }
  - { offsetInCU: 0xF1B9, offset: 0xF1B9, size: 0x8, addend: 0x0, symName: __ZNSt12length_errorC1B8ue170006EPKc, symObjAddr: 0x55C4, symBinAddr: 0x100007FD0, symSize: 0x34 }
  - { offsetInCU: 0xF1F0, offset: 0xF1F0, size: 0x8, addend: 0x0, symName: __ZNSt12length_errorC2B8ue170006EPKc, symObjAddr: 0x55F8, symBinAddr: 0x100008004, symSize: 0x4C }
  - { offsetInCU: 0xF227, offset: 0xF227, size: 0x8, addend: 0x0, symName: __ZNSt3__19allocatorImE8allocateB8ue170006Em, symObjAddr: 0x5644, symBinAddr: 0x100008050, symSize: 0x84 }
  - { offsetInCU: 0xF25A, offset: 0xF25A, size: 0x8, addend: 0x0, symName: __ZNSt3__117__compressed_pairImNS_9allocatorImEEE6secondB8ue170006Ev, symObjAddr: 0x5748, symBinAddr: 0x100008154, symSize: 0x24 }
  - { offsetInCU: 0xF27F, offset: 0xF27F, size: 0x8, addend: 0x0, symName: __ZNSt3__122__compressed_pair_elemINS_9allocatorImEELi1ELb1EE5__getB8ue170006Ev, symObjAddr: 0x576C, symBinAddr: 0x100008178, symSize: 0x14 }
  - { offsetInCU: 0xF2A4, offset: 0xF2A4, size: 0x8, addend: 0x0, symName: __ZNSt3__117__compressed_pairImNS_9allocatorImEEE5firstB8ue170006Ev, symObjAddr: 0x5780, symBinAddr: 0x10000818C, symSize: 0x24 }
  - { offsetInCU: 0xF2C9, offset: 0xF2C9, size: 0x8, addend: 0x0, symName: __ZNSt3__122__compressed_pair_elemImLi0ELb0EE5__getB8ue170006Ev, symObjAddr: 0x57A4, symBinAddr: 0x1000081B0, symSize: 0x14 }
  - { offsetInCU: 0xF2EE, offset: 0xF2EE, size: 0x8, addend: 0x0, symName: __ZNSt3__16vectorIbNS_9allocatorIbEEE11__make_iterB8ue170006Em, symObjAddr: 0x584C, symBinAddr: 0x100008258, symSize: 0x64 }
  - { offsetInCU: 0xF322, offset: 0xF322, size: 0x8, addend: 0x0, symName: __ZNSt3__114__bit_iteratorINS_6vectorIbNS_9allocatorIbEEEELb0ELm0EEC1B8ue170006ERKS5_, symObjAddr: 0x5A10, symBinAddr: 0x10000841C, symSize: 0x34 }
  - { offsetInCU: 0xF364, offset: 0xF364, size: 0x8, addend: 0x0, symName: __ZNKSt3__16__lessIvvEclB8ue170006ImmEEbRKT_RKT0_, symObjAddr: 0x5C64, symBinAddr: 0x100008670, symSize: 0x34 }
  - { offsetInCU: 0xF3B7, offset: 0xF3B7, size: 0x8, addend: 0x0, symName: __ZNSt3__114__bit_iteratorINS_6vectorIbNS_9allocatorIbEEEELb0ELm0EEC2B8ue170006ERKS5_, symObjAddr: 0x5D10, symBinAddr: 0x10000871C, symSize: 0x30 }
  - { offsetInCU: 0xF3EF, offset: 0xF3EF, size: 0x8, addend: 0x0, symName: __ZNSt3__114__bit_iteratorINS_6vectorIbNS_9allocatorIbEEEELb0ELm0EEC1B8ue170006EPmj, symObjAddr: 0x5DE8, symBinAddr: 0x1000087F4, symSize: 0x3C }
  - { offsetInCU: 0xF436, offset: 0xF436, size: 0x8, addend: 0x0, symName: __ZNSt3__114__bit_iteratorINS_6vectorIbNS_9allocatorIbEEEELb0ELm0EEC2B8ue170006EPmj, symObjAddr: 0x5E24, symBinAddr: 0x100008830, symSize: 0x2C }
  - { offsetInCU: 0xF47D, offset: 0xF47D, size: 0x8, addend: 0x0, symName: __ZNSt3__16vectorIbNS_9allocatorIbEEED2B8ue170006Ev, symObjAddr: 0x5E50, symBinAddr: 0x10000885C, symSize: 0x3C }
  - { offsetInCU: 0xF4A6, offset: 0xF4A6, size: 0x8, addend: 0x0, symName: __ZNSt3__16vectorIbNS_9allocatorIbEEE16__destroy_vectorC1B8ue170006ERS3_, symObjAddr: 0x5E8C, symBinAddr: 0x100008898, symSize: 0x34 }
  - { offsetInCU: 0xF4DE, offset: 0xF4DE, size: 0x8, addend: 0x0, symName: __ZNSt3__16vectorIbNS_9allocatorIbEEE16__destroy_vectorclB8ue170006Ev, symObjAddr: 0x5EC0, symBinAddr: 0x1000088CC, symSize: 0x7C }
  - { offsetInCU: 0xF503, offset: 0xF503, size: 0x8, addend: 0x0, symName: __ZNSt3__16vectorIbNS_9allocatorIbEEE16__destroy_vectorC2B8ue170006ERS3_, symObjAddr: 0x5F3C, symBinAddr: 0x100008948, symSize: 0x20 }
  - { offsetInCU: 0xF53B, offset: 0xF53B, size: 0x8, addend: 0x0, symName: __ZNSt3__116allocator_traitsINS_9allocatorImEEE10deallocateB8ue170006ERS2_Pmm, symObjAddr: 0x5F5C, symBinAddr: 0x100008968, symSize: 0x34 }
  - { offsetInCU: 0xF57D, offset: 0xF57D, size: 0x8, addend: 0x0, symName: __ZNSt3__19allocatorImE10deallocateB8ue170006EPmm, symObjAddr: 0x5F90, symBinAddr: 0x10000899C, symSize: 0x70 }
  - { offsetInCU: 0xF5C3, offset: 0xF5C3, size: 0x8, addend: 0x0, symName: __ZNKSt3__16__lessIvvEclB8ue170006IiiEEbRKT_RKT0_, symObjAddr: 0x6054, symBinAddr: 0x100008A60, symSize: 0x34 }
  - { offsetInCU: 0xF616, offset: 0xF616, size: 0x8, addend: 0x0, symName: __ZNSt3__16vectorIbNS_9allocatorIbEEE10__make_refB8ue170006Em, symObjAddr: 0x6088, symBinAddr: 0x100008A94, symSize: 0x60 }
  - { offsetInCU: 0xF64A, offset: 0xF64A, size: 0x8, addend: 0x0, symName: __ZNSt3__115__bit_referenceINS_6vectorIbNS_9allocatorIbEEEELb1EEC1B8ue170006EPmm, symObjAddr: 0x60E8, symBinAddr: 0x100008AF4, symSize: 0x3C }
  - { offsetInCU: 0xF68F, offset: 0xF68F, size: 0x8, addend: 0x0, symName: __ZNSt3__115__bit_referenceINS_6vectorIbNS_9allocatorIbEEEELb1EEC2B8ue170006EPmm, symObjAddr: 0x6124, symBinAddr: 0x100008B30, symSize: 0x2C }
  - { offsetInCU: 0xF6D4, offset: 0xF6D4, size: 0x8, addend: 0x0, symName: __ZNSt3__16vectorI3jobNS_9allocatorIS1_EEE9__end_capB8ue170006Ev, symObjAddr: 0x6150, symBinAddr: 0x100008B5C, symSize: 0x28 }
  - { offsetInCU: 0xF6F9, offset: 0xF6F9, size: 0x8, addend: 0x0, symName: __ZNSt3__16vectorI3jobNS_9allocatorIS1_EEE22__construct_one_at_endB8ue170006IJRKS1_EEEvDpOT_, symObjAddr: 0x6178, symBinAddr: 0x100008B84, symSize: 0x98 }
  - { offsetInCU: 0xF747, offset: 0xF747, size: 0x8, addend: 0x0, symName: __ZNSt3__16vectorI3jobNS_9allocatorIS1_EEE21__push_back_slow_pathIRKS1_EEvOT_, symObjAddr: 0x6210, symBinAddr: 0x100008C1C, symSize: 0xE0 }
  - { offsetInCU: 0xF7A3, offset: 0xF7A3, size: 0x8, addend: 0x0, symName: __ZNSt3__117__compressed_pairIP3jobNS_9allocatorIS1_EEE5firstB8ue170006Ev, symObjAddr: 0x62F0, symBinAddr: 0x100008CFC, symSize: 0x24 }
  - { offsetInCU: 0xF7C8, offset: 0xF7C8, size: 0x8, addend: 0x0, symName: __ZNSt3__122__compressed_pair_elemIP3jobLi0ELb0EE5__getB8ue170006Ev, symObjAddr: 0x6314, symBinAddr: 0x100008D20, symSize: 0x14 }
  - { offsetInCU: 0xF806, offset: 0xF806, size: 0x8, addend: 0x0, symName: __ZNSt3__16vectorI3jobNS_9allocatorIS1_EEE21_ConstructTransactionC1B8ue170006ERS4_m, symObjAddr: 0x6328, symBinAddr: 0x100008D34, symSize: 0x3C }
  - { offsetInCU: 0xF84D, offset: 0xF84D, size: 0x8, addend: 0x0, symName: __ZNSt3__116allocator_traitsINS_9allocatorI3jobEEE9constructB8ue170006IS2_JRKS2_EvEEvRS3_PT_DpOT0_, symObjAddr: 0x6364, symBinAddr: 0x100008D70, symSize: 0x34 }
  - { offsetInCU: 0xF8A4, offset: 0xF8A4, size: 0x8, addend: 0x0, symName: __ZNSt3__16vectorI3jobNS_9allocatorIS1_EEE21_ConstructTransactionD1B8ue170006Ev, symObjAddr: 0x6398, symBinAddr: 0x100008DA4, symSize: 0x2C }
  - { offsetInCU: 0xF8CD, offset: 0xF8CD, size: 0x8, addend: 0x0, symName: __ZNSt3__16vectorI3jobNS_9allocatorIS1_EEE21_ConstructTransactionC2B8ue170006ERS4_m, symObjAddr: 0x63C4, symBinAddr: 0x100008DD0, symSize: 0x4C }
  - { offsetInCU: 0xF914, offset: 0xF914, size: 0x8, addend: 0x0, symName: __ZNSt3__19allocatorI3jobE9constructB8ue170006IS1_JRKS1_EEEvPT_DpOT0_, symObjAddr: 0x6410, symBinAddr: 0x100008E1C, symSize: 0x30 }
  - { offsetInCU: 0xF969, offset: 0xF969, size: 0x8, addend: 0x0, symName: __ZNSt3__16vectorI3jobNS_9allocatorIS1_EEE21_ConstructTransactionD2B8ue170006Ev, symObjAddr: 0x6440, symBinAddr: 0x100008E4C, symSize: 0x20 }
  - { offsetInCU: 0xF992, offset: 0xF992, size: 0x8, addend: 0x0, symName: __ZNKSt3__16vectorI3jobNS_9allocatorIS1_EEE11__recommendB8ue170006Em, symObjAddr: 0x6460, symBinAddr: 0x100008E6C, symSize: 0xB4 }
  - { offsetInCU: 0xF9E5, offset: 0xF9E5, size: 0x8, addend: 0x0, symName: __ZNSt3__114__split_bufferI3jobRNS_9allocatorIS1_EEEC1EmmS4_, symObjAddr: 0x6514, symBinAddr: 0x100008F20, symSize: 0x44 }
  - { offsetInCU: 0xFA3A, offset: 0xFA3A, size: 0x8, addend: 0x0, symName: __ZNSt3__114__split_bufferI3jobRNS_9allocatorIS1_EEED1Ev, symObjAddr: 0x6668, symBinAddr: 0x100009074, symSize: 0x2C }
  - { offsetInCU: 0xFA65, offset: 0xFA65, size: 0x8, addend: 0x0, symName: __ZNKSt3__16vectorI3jobNS_9allocatorIS1_EEE8max_sizeEv, symObjAddr: 0x6694, symBinAddr: 0x1000090A0, symSize: 0x74 }
  - { offsetInCU: 0xFA8B, offset: 0xFA8B, size: 0x8, addend: 0x0, symName: __ZNKSt3__16vectorI3jobNS_9allocatorIS1_EEE20__throw_length_errorB8ue170006Ev, symObjAddr: 0x6708, symBinAddr: 0x100009114, symSize: 0x1C }
  - { offsetInCU: 0xFABA, offset: 0xFABA, size: 0x8, addend: 0x0, symName: __ZNSt3__116allocator_traitsINS_9allocatorI3jobEEE8max_sizeB8ue170006IS3_vEEmRKS3_, symObjAddr: 0x6750, symBinAddr: 0x10000915C, symSize: 0x24 }
  - { offsetInCU: 0xFAE8, offset: 0xFAE8, size: 0x8, addend: 0x0, symName: __ZNKSt3__16vectorI3jobNS_9allocatorIS1_EEE7__allocB8ue170006Ev, symObjAddr: 0x6774, symBinAddr: 0x100009180, symSize: 0x28 }
  - { offsetInCU: 0xFB0D, offset: 0xFB0D, size: 0x8, addend: 0x0, symName: __ZNSt3__114numeric_limitsIlE3maxB8ue170006Ev, symObjAddr: 0x679C, symBinAddr: 0x1000091A8, symSize: 0x14 }
  - { offsetInCU: 0xFB21, offset: 0xFB21, size: 0x8, addend: 0x0, symName: __ZNKSt3__19allocatorI3jobE8max_sizeB8ue170006Ev, symObjAddr: 0x67B0, symBinAddr: 0x1000091BC, symSize: 0x18 }
  - { offsetInCU: 0xFB46, offset: 0xFB46, size: 0x8, addend: 0x0, symName: __ZNKSt3__117__compressed_pairIP3jobNS_9allocatorIS1_EEE6secondB8ue170006Ev, symObjAddr: 0x67C8, symBinAddr: 0x1000091D4, symSize: 0x24 }
  - { offsetInCU: 0xFB6B, offset: 0xFB6B, size: 0x8, addend: 0x0, symName: __ZNKSt3__122__compressed_pair_elemINS_9allocatorI3jobEELi1ELb1EE5__getB8ue170006Ev, symObjAddr: 0x67EC, symBinAddr: 0x1000091F8, symSize: 0x14 }
  - { offsetInCU: 0xFB90, offset: 0xFB90, size: 0x8, addend: 0x0, symName: __ZNSt3__123__libcpp_numeric_limitsIlLb1EE3maxB8ue170006Ev, symObjAddr: 0x6800, symBinAddr: 0x10000920C, symSize: 0x8 }
  - { offsetInCU: 0xFBA4, offset: 0xFBA4, size: 0x8, addend: 0x0, symName: __ZNSt3__114__split_bufferI3jobRNS_9allocatorIS1_EEEC2EmmS4_, symObjAddr: 0x685C, symBinAddr: 0x100009268, symSize: 0xE0 }
  - { offsetInCU: 0xFC16, offset: 0xFC16, size: 0x8, addend: 0x0, symName: __ZNSt3__117__compressed_pairIP3jobRNS_9allocatorIS1_EEEC1B8ue170006IDnS5_EEOT_OT0_, symObjAddr: 0x693C, symBinAddr: 0x100009348, symSize: 0x3C }
  - { offsetInCU: 0xFC6D, offset: 0xFC6D, size: 0x8, addend: 0x0, symName: __ZNSt3__114__split_bufferI3jobRNS_9allocatorIS1_EEE7__allocB8ue170006Ev, symObjAddr: 0x69B8, symBinAddr: 0x1000093C4, symSize: 0x28 }
  - { offsetInCU: 0xFC92, offset: 0xFC92, size: 0x8, addend: 0x0, symName: __ZNSt3__114__split_bufferI3jobRNS_9allocatorIS1_EEE9__end_capB8ue170006Ev, symObjAddr: 0x69E0, symBinAddr: 0x1000093EC, symSize: 0x28 }
  - { offsetInCU: 0xFCB7, offset: 0xFCB7, size: 0x8, addend: 0x0, symName: __ZNSt3__117__compressed_pairIP3jobRNS_9allocatorIS1_EEEC2B8ue170006IDnS5_EEOT_OT0_, symObjAddr: 0x6A08, symBinAddr: 0x100009414, symSize: 0x48 }
  - { offsetInCU: 0xFD0E, offset: 0xFD0E, size: 0x8, addend: 0x0, symName: __ZNSt3__122__compressed_pair_elemIRNS_9allocatorI3jobEELi1ELb0EEC2B8ue170006IS4_vEEOT_, symObjAddr: 0x6A50, symBinAddr: 0x10000945C, symSize: 0x20 }
  - { offsetInCU: 0xFD4F, offset: 0xFD4F, size: 0x8, addend: 0x0, symName: __ZNSt3__19allocatorI3jobE8allocateB8ue170006Em, symObjAddr: 0x6A70, symBinAddr: 0x10000947C, symSize: 0x8C }
  - { offsetInCU: 0xFD82, offset: 0xFD82, size: 0x8, addend: 0x0, symName: __ZNSt3__117__compressed_pairIP3jobRNS_9allocatorIS1_EEE6secondB8ue170006Ev, symObjAddr: 0x6AFC, symBinAddr: 0x100009508, symSize: 0x28 }
  - { offsetInCU: 0xFDA7, offset: 0xFDA7, size: 0x8, addend: 0x0, symName: __ZNSt3__122__compressed_pair_elemIRNS_9allocatorI3jobEELi1ELb0EE5__getB8ue170006Ev, symObjAddr: 0x6B24, symBinAddr: 0x100009530, symSize: 0x18 }
  - { offsetInCU: 0xFDCC, offset: 0xFDCC, size: 0x8, addend: 0x0, symName: __ZNSt3__117__compressed_pairIP3jobRNS_9allocatorIS1_EEE5firstB8ue170006Ev, symObjAddr: 0x6B3C, symBinAddr: 0x100009548, symSize: 0x24 }
  - { offsetInCU: 0xFDF1, offset: 0xFDF1, size: 0x8, addend: 0x0, symName: __ZNSt3__116reverse_iteratorIP3jobEC1B8ue170006ES2_, symObjAddr: 0x6C48, symBinAddr: 0x100009654, symSize: 0x34 }
  - { offsetInCU: 0xFE28, offset: 0xFE28, size: 0x8, addend: 0x0, symName: __ZNKSt3__116reverse_iteratorIP3jobE4baseB8ue170006Ev, symObjAddr: 0x6C7C, symBinAddr: 0x100009688, symSize: 0x18 }
  - { offsetInCU: 0xFE4D, offset: 0xFE4D, size: 0x8, addend: 0x0, symName: __ZNKSt3__16vectorI3jobNS_9allocatorIS1_EEE14__annotate_newB8ue170006Em, symObjAddr: 0x6CD0, symBinAddr: 0x1000096DC, symSize: 0xC8 }
  - { offsetInCU: 0xFE81, offset: 0xFE81, size: 0x8, addend: 0x0, symName: __ZNKSt3__116reverse_iteratorIP3jobEdeB8ue170006Ev, symObjAddr: 0x6E38, symBinAddr: 0x100009844, symSize: 0x28 }
  - { offsetInCU: 0xFEB4, offset: 0xFEB4, size: 0x8, addend: 0x0, symName: __ZNSt3__116reverse_iteratorIP3jobEppB8ue170006Ev, symObjAddr: 0x6E60, symBinAddr: 0x10000986C, symSize: 0x20 }
  - { offsetInCU: 0xFEDE, offset: 0xFEDE, size: 0x8, addend: 0x0, symName: __ZNSt3__119__to_address_helperINS_16reverse_iteratorIP3jobEEvE6__callB8ue170006ERKS4_, symObjAddr: 0x6EF8, symBinAddr: 0x100009904, symSize: 0x4C }
  - { offsetInCU: 0xFF01, offset: 0xFF01, size: 0x8, addend: 0x0, symName: __ZNKSt3__116reverse_iteratorIP3jobEptB8ue170006Ev, symObjAddr: 0x6F44, symBinAddr: 0x100009950, symSize: 0x24 }
  - { offsetInCU: 0xFF49, offset: 0xFF49, size: 0x8, addend: 0x0, symName: __ZNKSt3__111__move_loopINS_17_ClassicAlgPolicyEEclB8ue170006INS_16reverse_iteratorIP3jobEES7_S7_EENS_4pairIT_T1_EES9_T0_SA_, symObjAddr: 0x71E0, symBinAddr: 0x100009BEC, symSize: 0xA8 }
  - { offsetInCU: 0xFFB3, offset: 0xFFB3, size: 0x8, addend: 0x0, symName: __ZNSt3__18_IterOpsINS_17_ClassicAlgPolicyEE11__iter_moveB8ue170006IRNS_16reverse_iteratorIP3jobEEEENS_9enable_ifIXsr12is_referenceIDTdeclsr3stdE7declvalIRT_EEEEE5valueEDTclsr3stdE4movedeclsr3stdE7declvalISB_EEEEE4typeEOSA_, symObjAddr: 0x73E8, symBinAddr: 0x100009DF4, symSize: 0x28 }
  - { offsetInCU: 0xFFDF, offset: 0xFFDF, size: 0x8, addend: 0x0, symName: __ZNSt3__18_IterOpsINS_17_ClassicAlgPolicyEE25__validate_iter_referenceB8ue170006IRNS_16reverse_iteratorIP3jobEEEEvv, symObjAddr: 0x7410, symBinAddr: 0x100009E1C, symSize: 0x4 }
  - { offsetInCU: 0xFFFD, offset: 0xFFFD, size: 0x8, addend: 0x0, symName: __ZNSt3__118__unwrap_iter_implINS_16reverse_iteratorIP3jobEELb0EE8__unwrapB8ue170006ES4_, symObjAddr: 0x7414, symBinAddr: 0x100009E20, symSize: 0x24 }
  - { offsetInCU: 0x10020, offset: 0x10020, size: 0x8, addend: 0x0, symName: __ZNSt3__14pairINS_16reverse_iteratorIP3jobEES4_EC1B8ue170006ERKS4_S7_, symObjAddr: 0x7438, symBinAddr: 0x100009E44, symSize: 0x3C }
  - { offsetInCU: 0x10065, offset: 0x10065, size: 0x8, addend: 0x0, symName: __ZNSt3__14pairINS_16reverse_iteratorIP3jobEES4_EC2B8ue170006ERKS4_S7_, symObjAddr: 0x7474, symBinAddr: 0x100009E80, symSize: 0x34 }
  - { offsetInCU: 0x100AA, offset: 0x100AA, size: 0x8, addend: 0x0, symName: __ZNSt3__118__unwrap_iter_implINS_16reverse_iteratorIP3jobEELb0EE8__rewrapB8ue170006ES4_S4_, symObjAddr: 0x74A8, symBinAddr: 0x100009EB4, symSize: 0x2C }
  - { offsetInCU: 0x100D8, offset: 0x100D8, size: 0x8, addend: 0x0, symName: __ZNSt3__116reverse_iteratorIP3jobEC2B8ue170006ES2_, symObjAddr: 0x74D4, symBinAddr: 0x100009EE0, symSize: 0x28 }
  - { offsetInCU: 0x1010F, offset: 0x1010F, size: 0x8, addend: 0x0, symName: __ZNSt3__114__split_bufferI3jobRNS_9allocatorIS1_EEED2Ev, symObjAddr: 0x74FC, symBinAddr: 0x100009F08, symSize: 0x80 }
  - { offsetInCU: 0x1013A, offset: 0x1013A, size: 0x8, addend: 0x0, symName: __ZNSt3__114__split_bufferI3jobRNS_9allocatorIS1_EEE5clearB8ue170006Ev, symObjAddr: 0x757C, symBinAddr: 0x100009F88, symSize: 0x28 }
  - { offsetInCU: 0x1015F, offset: 0x1015F, size: 0x8, addend: 0x0, symName: __ZNKSt3__114__split_bufferI3jobRNS_9allocatorIS1_EEE8capacityB8ue170006Ev, symObjAddr: 0x75A4, symBinAddr: 0x100009FB0, symSize: 0x40 }
  - { offsetInCU: 0x10184, offset: 0x10184, size: 0x8, addend: 0x0, symName: __ZNSt3__114__split_bufferI3jobRNS_9allocatorIS1_EEE17__destruct_at_endB8ue170006EPS1_, symObjAddr: 0x75E4, symBinAddr: 0x100009FF0, symSize: 0x2C }
  - { offsetInCU: 0x101B7, offset: 0x101B7, size: 0x8, addend: 0x0, symName: __ZNSt3__114__split_bufferI3jobRNS_9allocatorIS1_EEE17__destruct_at_endB8ue170006EPS1_NS_17integral_constantIbLb0EEE, symObjAddr: 0x7610, symBinAddr: 0x10000A01C, symSize: 0x94 }
  - { offsetInCU: 0x101F6, offset: 0x101F6, size: 0x8, addend: 0x0, symName: __ZNKSt3__114__split_bufferI3jobRNS_9allocatorIS1_EEE9__end_capB8ue170006Ev, symObjAddr: 0x76A4, symBinAddr: 0x10000A0B0, symSize: 0x28 }
  - { offsetInCU: 0x1021B, offset: 0x1021B, size: 0x8, addend: 0x0, symName: __ZNKSt3__117__compressed_pairIP3jobRNS_9allocatorIS1_EEE5firstB8ue170006Ev, symObjAddr: 0x76CC, symBinAddr: 0x10000A0D8, symSize: 0x24 }
  - { offsetInCU: 0x1025E, offset: 0x1025E, size: 0x8, addend: 0x0, symName: __ZNKSt3__113basic_ostreamIcNS_11char_traitsIcEEE6sentrycvbB8ue170006Ev, symObjAddr: 0x78E4, symBinAddr: 0x10000A2F0, symSize: 0x1C }
  - { offsetInCU: 0x10283, offset: 0x10283, size: 0x8, addend: 0x0, symName: __ZNSt3__119ostreambuf_iteratorIcNS_11char_traitsIcEEEC1B8ue170006ERNS_13basic_ostreamIcS2_EE, symObjAddr: 0x7B48, symBinAddr: 0x10000A554, symSize: 0x34 }
  - { offsetInCU: 0x102BA, offset: 0x102BA, size: 0x8, addend: 0x0, symName: __ZNKSt3__18ios_base5flagsB8ue170006Ev, symObjAddr: 0x7B7C, symBinAddr: 0x10000A588, symSize: 0x18 }
  - { offsetInCU: 0x102E1, offset: 0x102E1, size: 0x8, addend: 0x0, symName: __ZNKSt3__19basic_iosIcNS_11char_traitsIcEEE4fillB8ue170006Ev, symObjAddr: 0x7B94, symBinAddr: 0x10000A5A0, symSize: 0x64 }
  - { offsetInCU: 0x10307, offset: 0x10307, size: 0x8, addend: 0x0, symName: __ZNKSt3__119ostreambuf_iteratorIcNS_11char_traitsIcEEE6failedB8ue170006Ev, symObjAddr: 0x7BF8, symBinAddr: 0x10000A604, symSize: 0x24 }
  - { offsetInCU: 0x1032C, offset: 0x1032C, size: 0x8, addend: 0x0, symName: __ZNSt3__19basic_iosIcNS_11char_traitsIcEEE8setstateB8ue170006Ej, symObjAddr: 0x7C1C, symBinAddr: 0x10000A628, symSize: 0x2C }
  - { offsetInCU: 0x10360, offset: 0x10360, size: 0x8, addend: 0x0, symName: __ZNKSt3__18ios_base5widthB8ue170006Ev, symObjAddr: 0x7C48, symBinAddr: 0x10000A654, symSize: 0x18 }
  - { offsetInCU: 0x10387, offset: 0x10387, size: 0x8, addend: 0x0, symName: __ZNSt3__115basic_streambufIcNS_11char_traitsIcEEE5sputnB8ue170006EPKcl, symObjAddr: 0x7C60, symBinAddr: 0x10000A66C, symSize: 0x3C }
  - { offsetInCU: 0x103C8, offset: 0x103C8, size: 0x8, addend: 0x0, symName: __ZNSt3__112basic_stringIcNS_11char_traitsIcEENS_9allocatorIcEEEC1B8ue170006Emc, symObjAddr: 0x7C9C, symBinAddr: 0x10000A6A8, symSize: 0x3C }
  - { offsetInCU: 0x1040F, offset: 0x1040F, size: 0x8, addend: 0x0, symName: __ZNKSt3__112basic_stringIcNS_11char_traitsIcEENS_9allocatorIcEEE4dataB8ue170006Ev, symObjAddr: 0x7CD8, symBinAddr: 0x10000A6E4, symSize: 0x28 }
  - { offsetInCU: 0x10434, offset: 0x10434, size: 0x8, addend: 0x0, symName: __ZNSt3__18ios_base5widthB8ue170006El, symObjAddr: 0x7D00, symBinAddr: 0x10000A70C, symSize: 0x2C }
  - { offsetInCU: 0x10479, offset: 0x10479, size: 0x8, addend: 0x0, symName: __ZNSt3__112basic_stringIcNS_11char_traitsIcEENS_9allocatorIcEEEC2B8ue170006Emc, symObjAddr: 0x7D2C, symBinAddr: 0x10000A738, symSize: 0x4C }
  - { offsetInCU: 0x104C0, offset: 0x104C0, size: 0x8, addend: 0x0, symName: __ZNSt3__117__compressed_pairINS_12basic_stringIcNS_11char_traitsIcEENS_9allocatorIcEEE5__repES5_EC1B8ue170006INS_18__default_init_tagESA_EEOT_OT0_, symObjAddr: 0x7D78, symBinAddr: 0x10000A784, symSize: 0x3C }
  - { offsetInCU: 0x10517, offset: 0x10517, size: 0x8, addend: 0x0, symName: __ZNSt3__117__compressed_pairINS_12basic_stringIcNS_11char_traitsIcEENS_9allocatorIcEEE5__repES5_EC2B8ue170006INS_18__default_init_tagESA_EEOT_OT0_, symObjAddr: 0x7DB4, symBinAddr: 0x10000A7C0, symSize: 0x3C }
  - { offsetInCU: 0x1056E, offset: 0x1056E, size: 0x8, addend: 0x0, symName: __ZNSt3__122__compressed_pair_elemINS_12basic_stringIcNS_11char_traitsIcEENS_9allocatorIcEEE5__repELi0ELb0EEC2B8ue170006ENS_18__default_init_tagE, symObjAddr: 0x7DF0, symBinAddr: 0x10000A7FC, symSize: 0x14 }
  - { offsetInCU: 0x105A2, offset: 0x105A2, size: 0x8, addend: 0x0, symName: __ZNSt3__122__compressed_pair_elemINS_9allocatorIcEELi1ELb1EEC2B8ue170006ENS_18__default_init_tagE, symObjAddr: 0x7E04, symBinAddr: 0x10000A810, symSize: 0x2C }
  - { offsetInCU: 0x105D6, offset: 0x105D6, size: 0x8, addend: 0x0, symName: __ZNSt3__19allocatorIcEC2B8ue170006Ev, symObjAddr: 0x7E30, symBinAddr: 0x10000A83C, symSize: 0x2C }
  - { offsetInCU: 0x105FF, offset: 0x105FF, size: 0x8, addend: 0x0, symName: __ZNSt3__116__non_trivial_ifILb1ENS_9allocatorIcEEEC2B8ue170006Ev, symObjAddr: 0x7E5C, symBinAddr: 0x10000A868, symSize: 0x14 }
  - { offsetInCU: 0x10628, offset: 0x10628, size: 0x8, addend: 0x0, symName: __ZNKSt3__112basic_stringIcNS_11char_traitsIcEENS_9allocatorIcEEE13__get_pointerB8ue170006Ev, symObjAddr: 0x7E84, symBinAddr: 0x10000A890, symSize: 0x54 }
  - { offsetInCU: 0x1064D, offset: 0x1064D, size: 0x8, addend: 0x0, symName: __ZNKSt3__112basic_stringIcNS_11char_traitsIcEENS_9allocatorIcEEE9__is_longB8ue170006Ev, symObjAddr: 0x7ED8, symBinAddr: 0x10000A8E4, symSize: 0x74 }
  - { offsetInCU: 0x10672, offset: 0x10672, size: 0x8, addend: 0x0, symName: __ZNKSt3__112basic_stringIcNS_11char_traitsIcEENS_9allocatorIcEEE18__get_long_pointerB8ue170006Ev, symObjAddr: 0x7F4C, symBinAddr: 0x10000A958, symSize: 0x28 }
  - { offsetInCU: 0x10697, offset: 0x10697, size: 0x8, addend: 0x0, symName: __ZNKSt3__112basic_stringIcNS_11char_traitsIcEENS_9allocatorIcEEE19__get_short_pointerB8ue170006Ev, symObjAddr: 0x7F74, symBinAddr: 0x10000A980, symSize: 0x28 }
  - { offsetInCU: 0x106BC, offset: 0x106BC, size: 0x8, addend: 0x0, symName: __ZNKSt3__117__compressed_pairINS_12basic_stringIcNS_11char_traitsIcEENS_9allocatorIcEEE5__repES5_E5firstB8ue170006Ev, symObjAddr: 0x7F9C, symBinAddr: 0x10000A9A8, symSize: 0x24 }
  - { offsetInCU: 0x106E1, offset: 0x106E1, size: 0x8, addend: 0x0, symName: __ZNKSt3__122__compressed_pair_elemINS_12basic_stringIcNS_11char_traitsIcEENS_9allocatorIcEEE5__repELi0ELb0EE5__getB8ue170006Ev, symObjAddr: 0x7FC0, symBinAddr: 0x10000A9CC, symSize: 0x14 }
  - { offsetInCU: 0x10706, offset: 0x10706, size: 0x8, addend: 0x0, symName: __ZNSt3__114pointer_traitsIPKcE10pointer_toB8ue170006ERS1_, symObjAddr: 0x7FD4, symBinAddr: 0x10000A9E0, symSize: 0x14 }
  - { offsetInCU: 0x10729, offset: 0x10729, size: 0x8, addend: 0x0, symName: __ZNSt3__119ostreambuf_iteratorIcNS_11char_traitsIcEEEC2B8ue170006ERNS_13basic_ostreamIcS2_EE, symObjAddr: 0x7FE8, symBinAddr: 0x10000A9F4, symSize: 0x68 }
  - { offsetInCU: 0x10760, offset: 0x10760, size: 0x8, addend: 0x0, symName: __ZNKSt3__19basic_iosIcNS_11char_traitsIcEEE5rdbufB8ue170006Ev, symObjAddr: 0x8050, symBinAddr: 0x10000AA5C, symSize: 0x24 }
  - { offsetInCU: 0x10786, offset: 0x10786, size: 0x8, addend: 0x0, symName: __ZNKSt3__18ios_base5rdbufB8ue170006Ev, symObjAddr: 0x8074, symBinAddr: 0x10000AA80, symSize: 0x18 }
  - { offsetInCU: 0x107AB, offset: 0x107AB, size: 0x8, addend: 0x0, symName: __ZNSt3__111char_traitsIcE11eq_int_typeB8ue170006Eii, symObjAddr: 0x808C, symBinAddr: 0x10000AA98, symSize: 0x28 }
  - { offsetInCU: 0x107DE, offset: 0x107DE, size: 0x8, addend: 0x0, symName: __ZNSt3__111char_traitsIcE3eofB8ue170006Ev, symObjAddr: 0x80B4, symBinAddr: 0x10000AAC0, symSize: 0x8 }
  - { offsetInCU: 0x107F2, offset: 0x107F2, size: 0x8, addend: 0x0, symName: __ZNKSt3__19basic_iosIcNS_11char_traitsIcEEE5widenB8ue170006Ec, symObjAddr: 0x80BC, symBinAddr: 0x10000AAC8, symSize: 0x8C }
  - { offsetInCU: 0x1085E, offset: 0x1085E, size: 0x8, addend: 0x0, symName: __ZNKSt3__15ctypeIcE5widenB8ue170006Ec, symObjAddr: 0x8174, symBinAddr: 0x10000AB80, symSize: 0x38 }
  - { offsetInCU: 0x10892, offset: 0x10892, size: 0x8, addend: 0x0, symName: __ZNSt3__18ios_base8setstateB8ue170006Ej, symObjAddr: 0x81AC, symBinAddr: 0x10000ABB8, symSize: 0x34 }
  - { offsetInCU: 0x108C7, offset: 0x108C7, size: 0x8, addend: 0x0, symName: __ZNSt3__111char_traitsIcE6lengthB8ue170006EPKc, symObjAddr: 0x81E0, symBinAddr: 0x10000ABEC, symSize: 0x48 }
  - { offsetInCU: 0x108EA, offset: 0x108EA, size: 0x8, addend: 0x0, symName: __ZNSt3__16vectorI3jobNS_9allocatorIS1_EEEC2ERKS4_, symObjAddr: 0x824C, symBinAddr: 0x10000AC58, symSize: 0x94 }
  - { offsetInCU: 0x10924, offset: 0x10924, size: 0x8, addend: 0x0, symName: __ZNSt3__116allocator_traitsINS_9allocatorI3jobEEE37select_on_container_copy_constructionB8ue170006IS3_vvEES3_RKS3_, symObjAddr: 0x82E0, symBinAddr: 0x10000ACEC, symSize: 0x10 }
  - { offsetInCU: 0x10958, offset: 0x10958, size: 0x8, addend: 0x0, symName: __ZNSt3__117__compressed_pairIP3jobNS_9allocatorIS1_EEEC1B8ue170006IDnS4_EEOT_OT0_, symObjAddr: 0x82F0, symBinAddr: 0x10000ACFC, symSize: 0x3C }
  - { offsetInCU: 0x109AF, offset: 0x109AF, size: 0x8, addend: 0x0, symName: __ZNSt3__16vectorI3jobNS_9allocatorIS1_EEE16__init_with_sizeB8ue170006IPS1_S6_EEvT_T0_m, symObjAddr: 0x832C, symBinAddr: 0x10000AD38, symSize: 0xC0 }
  - { offsetInCU: 0x10A22, offset: 0x10A22, size: 0x8, addend: 0x0, symName: __ZNSt3__117__compressed_pairIP3jobNS_9allocatorIS1_EEEC2B8ue170006IDnS4_EEOT_OT0_, symObjAddr: 0x83EC, symBinAddr: 0x10000ADF8, symSize: 0x44 }
  - { offsetInCU: 0x10A79, offset: 0x10A79, size: 0x8, addend: 0x0, symName: __ZNSt3__122__compressed_pair_elemINS_9allocatorI3jobEELi1ELb1EEC2B8ue170006IS3_vEEOT_, symObjAddr: 0x8430, symBinAddr: 0x10000AE3C, symSize: 0x18 }
  - { offsetInCU: 0x10ABA, offset: 0x10ABA, size: 0x8, addend: 0x0, symName: __ZNSt3__16vectorI3jobNS_9allocatorIS1_EEE11__vallocateB8ue170006Em, symObjAddr: 0x8488, symBinAddr: 0x10000AE94, symSize: 0xB4 }
  - { offsetInCU: 0x10AFD, offset: 0x10AFD, size: 0x8, addend: 0x0, symName: __ZNSt3__16vectorI3jobNS_9allocatorIS1_EEE18__construct_at_endIPS1_S6_EEvT_T0_m, symObjAddr: 0x853C, symBinAddr: 0x10000AF48, symSize: 0x94 }
  - { offsetInCU: 0x10B71, offset: 0x10B71, size: 0x8, addend: 0x0, symName: __ZNSt3__128__exception_guard_exceptionsINS_6vectorI3jobNS_9allocatorIS2_EEE16__destroy_vectorEE10__completeB8ue170006Ev, symObjAddr: 0x85D0, symBinAddr: 0x10000AFDC, symSize: 0x1C }
  - { offsetInCU: 0x10B96, offset: 0x10B96, size: 0x8, addend: 0x0, symName: __ZNSt3__128__exception_guard_exceptionsINS_6vectorI3jobNS_9allocatorIS2_EEE16__destroy_vectorEED1B8ue170006Ev, symObjAddr: 0x85EC, symBinAddr: 0x10000AFF8, symSize: 0x2C }
  - { offsetInCU: 0x10BBF, offset: 0x10BBF, size: 0x8, addend: 0x0, symName: __ZNSt3__128__exception_guard_exceptionsINS_6vectorI3jobNS_9allocatorIS2_EEE16__destroy_vectorEEC1B8ue170006ES6_, symObjAddr: 0x8618, symBinAddr: 0x10000B024, symSize: 0x34 }
  - { offsetInCU: 0x10BF6, offset: 0x10BF6, size: 0x8, addend: 0x0, symName: __ZNSt3__128__exception_guard_exceptionsINS_6vectorI3jobNS_9allocatorIS2_EEE16__destroy_vectorEEC2B8ue170006ES6_, symObjAddr: 0x864C, symBinAddr: 0x10000B058, symSize: 0x24 }
  - { offsetInCU: 0x10C46, offset: 0x10C46, size: 0x8, addend: 0x0, symName: __ZNSt3__14pairIP3jobS2_EC1B8ue170006ERKS2_S5_, symObjAddr: 0x88F8, symBinAddr: 0x10000B304, symSize: 0x3C }
  - { offsetInCU: 0x10C8B, offset: 0x10C8B, size: 0x8, addend: 0x0, symName: __ZNSt3__14pairIP3jobS2_EC2B8ue170006ERKS2_S5_, symObjAddr: 0x8934, symBinAddr: 0x10000B340, symSize: 0x34 }
  - { offsetInCU: 0x10CD0, offset: 0x10CD0, size: 0x8, addend: 0x0, symName: __ZNSt3__129_AllocatorDestroyRangeReverseINS_9allocatorI3jobEEPS2_EC1B8ue170006ERS3_RS4_S7_, symObjAddr: 0x89B4, symBinAddr: 0x10000B3C0, symSize: 0x44 }
  - { offsetInCU: 0x10D26, offset: 0x10D26, size: 0x8, addend: 0x0, symName: __ZNSt3__116allocator_traitsINS_9allocatorI3jobEEE9constructB8ue170006IS2_JRS2_EvEEvRS3_PT_DpOT0_, symObjAddr: 0x89F8, symBinAddr: 0x10000B404, symSize: 0x34 }
  - { offsetInCU: 0x10D7D, offset: 0x10D7D, size: 0x8, addend: 0x0, symName: __ZNSt3__128__exception_guard_exceptionsINS_29_AllocatorDestroyRangeReverseINS_9allocatorI3jobEEPS3_EEE10__completeB8ue170006Ev, symObjAddr: 0x8A2C, symBinAddr: 0x10000B438, symSize: 0x1C }
  - { offsetInCU: 0x10DA2, offset: 0x10DA2, size: 0x8, addend: 0x0, symName: __ZNSt3__128__exception_guard_exceptionsINS_29_AllocatorDestroyRangeReverseINS_9allocatorI3jobEEPS3_EEED1B8ue170006Ev, symObjAddr: 0x8A48, symBinAddr: 0x10000B454, symSize: 0x2C }
  - { offsetInCU: 0x10DCB, offset: 0x10DCB, size: 0x8, addend: 0x0, symName: __ZNSt3__128__exception_guard_exceptionsINS_29_AllocatorDestroyRangeReverseINS_9allocatorI3jobEEPS3_EEEC1B8ue170006ES6_, symObjAddr: 0x8A74, symBinAddr: 0x10000B480, symSize: 0x34 }
  - { offsetInCU: 0x10E03, offset: 0x10E03, size: 0x8, addend: 0x0, symName: __ZNSt3__128__exception_guard_exceptionsINS_29_AllocatorDestroyRangeReverseINS_9allocatorI3jobEEPS3_EEEC2B8ue170006ES6_, symObjAddr: 0x8AA8, symBinAddr: 0x10000B4B4, symSize: 0x30 }
  - { offsetInCU: 0x10E3B, offset: 0x10E3B, size: 0x8, addend: 0x0, symName: __ZNSt3__129_AllocatorDestroyRangeReverseINS_9allocatorI3jobEEPS2_EC2B8ue170006ERS3_RS4_S7_, symObjAddr: 0x8AD8, symBinAddr: 0x10000B4E4, symSize: 0x38 }
  - { offsetInCU: 0x10E91, offset: 0x10E91, size: 0x8, addend: 0x0, symName: __ZNSt3__19allocatorI3jobE9constructB8ue170006IS1_JRS1_EEEvPT_DpOT0_, symObjAddr: 0x8B10, symBinAddr: 0x10000B51C, symSize: 0x30 }
  - { offsetInCU: 0x10EE6, offset: 0x10EE6, size: 0x8, addend: 0x0, symName: __ZNSt3__128__exception_guard_exceptionsINS_29_AllocatorDestroyRangeReverseINS_9allocatorI3jobEEPS3_EEED2B8ue170006Ev, symObjAddr: 0x8B40, symBinAddr: 0x10000B54C, symSize: 0x48 }
  - { offsetInCU: 0x10F0F, offset: 0x10F0F, size: 0x8, addend: 0x0, symName: __ZNKSt3__129_AllocatorDestroyRangeReverseINS_9allocatorI3jobEEPS2_EclB8ue170006Ev, symObjAddr: 0x8B88, symBinAddr: 0x10000B594, symSize: 0x68 }
  - { offsetInCU: 0x10F34, offset: 0x10F34, size: 0x8, addend: 0x0, symName: __ZNSt3__118__unwrap_iter_implIP3jobLb1EE8__unwrapB8ue170006ES2_, symObjAddr: 0x8C60, symBinAddr: 0x10000B66C, symSize: 0x24 }
  - { offsetInCU: 0x10F57, offset: 0x10F57, size: 0x8, addend: 0x0, symName: __ZNSt3__118__unwrap_iter_implIP3jobLb1EE8__rewrapB8ue170006ES2_S2_, symObjAddr: 0x8C84, symBinAddr: 0x10000B690, symSize: 0x58 }
  - { offsetInCU: 0x10F88, offset: 0x10F88, size: 0x8, addend: 0x0, symName: __ZNSt3__128__exception_guard_exceptionsINS_6vectorI3jobNS_9allocatorIS2_EEE16__destroy_vectorEED2B8ue170006Ev, symObjAddr: 0x8CDC, symBinAddr: 0x10000B6E8, symSize: 0x48 }
...
